---
triple:          'arm64-apple-darwin'
binary-path:     'bin/main'
relocations:
  - { offsetInCU: 0x5C, offset: 0x5C, size: 0x8, addend: 0x0, symName: __ZNSt3__119piecewise_constructE, symObjAddr: 0xBF9F, symBinAddr: 0x10000F77F, symSize: 0x0 }
  - { offsetInCU: 0x9C3, offset: 0x9C3, size: 0x8, addend: 0x0, symName: __ZNSt3__14__fs10filesystem10remove_allB8ue170006ERKNS1_4pathE, symObjAddr: 0x1100, symBinAddr: 0x100004910, symSize: 0x28 }
  - { offsetInCU: 0x9EF, offset: 0x9EF, size: 0x8, addend: 0x0, symName: __ZNSt3__14__fs10filesystem18create_directoriesB8ue170006ERKNS1_4pathE, symObjAddr: 0x1190, symBinAddr: 0x1000049A0, symSize: 0x2C }
  - { offsetInCU: 0xB9A2, offset: 0xB9A2, size: 0x8, addend: 0x0, symName: __ZNSt3__16copy_nB8ue170006IPKcmPcEENS_9enable_ifIXsr37__has_random_access_iterator_categoryIT_EE5valueET1_E4typeES5_T0_S6_, symObjAddr: 0x3C64, symBinAddr: 0x100007474, symSize: 0x44 }
  - { offsetInCU: 0xBA29, offset: 0xBA29, size: 0x8, addend: 0x0, symName: __ZNSt3__124__put_character_sequenceB8ue170006IcNS_11char_traitsIcEEEERNS_13basic_ostreamIT_T0_EES7_PKS4_m, symObjAddr: 0x4A84, symBinAddr: 0x100008294, symSize: 0x1EC }
  - { offsetInCU: 0xC8AE, offset: 0xC8AE, size: 0x8, addend: 0x0, symName: __ZNSt3__17advanceB8ue170006IPdllvEEvRT_T0_, symObjAddr: 0x6EE0, symBinAddr: 0x10000A6F0, symSize: 0x38 }
  - { offsetInCU: 0xD482, offset: 0xD482, size: 0x8, addend: 0x0, symName: '__ZNSt3__110__function10__not_nullB8ue170006IZ17AdvectionSolutionNS_8functionIFddEEEdE3$_0EEbRKT_', symObjAddr: 0x7E30, symBinAddr: 0x10000B640, symSize: 0x18 }
  - { offsetInCU: 0xD4B3, offset: 0xD4B3, size: 0x8, addend: 0x0, symName: __ZNSt3__110__function10__not_nullB8ue170006IFddEEEbPT_, symObjAddr: 0x9DF4, symBinAddr: 0x10000D604, symSize: 0x20 }
  - { offsetInCU: 0x1088D, offset: 0x1088D, size: 0x8, addend: 0x0, symName: __ZNSt3__1plB8ue170006IcNS_11char_traitsIcEENS_9allocatorIcEEEENS_12basic_stringIT_T0_T1_EEOS9_PKS6_, symObjAddr: 0x11BC, symBinAddr: 0x1000049CC, symSize: 0x40 }
  - { offsetInCU: 0x108E5, offset: 0x108E5, size: 0x8, addend: 0x0, symName: __ZNSt3__1plB8ue170006IcNS_11char_traitsIcEENS_9allocatorIcEEEENS_12basic_stringIT_T0_T1_EERKS9_PKS6_, symObjAddr: 0x11FC, symBinAddr: 0x100004A0C, symSize: 0x11C }
  - { offsetInCU: 0x10986, offset: 0x10986, size: 0x8, addend: 0x0, symName: __ZNSt3__122__make_exception_guardB8ue170006INS_6vectorIdNS_9allocatorIdEEE16__destroy_vectorEEENS_28__exception_guard_exceptionsIT_EES7_, symObjAddr: 0x1704, symBinAddr: 0x100004F14, symSize: 0x40 }
  - { offsetInCU: 0x109BB, offset: 0x109BB, size: 0x8, addend: 0x0, symName: __ZNSt3__119__allocate_at_leastB8ue170006INS_9allocatorIdEEEENS_19__allocation_resultINS_16allocator_traitsIT_E7pointerEEERS5_m, symObjAddr: 0x1AF0, symBinAddr: 0x100005300, symSize: 0x40 }
  - { offsetInCU: 0x109FE, offset: 0x109FE, size: 0x8, addend: 0x0, symName: __ZNSt3__13minB8ue170006ImEERKT_S3_S3_, symObjAddr: 0x1C2C, symBinAddr: 0x10000543C, symSize: 0x2C }
  - { offsetInCU: 0x10C2B, offset: 0x10C2B, size: 0x8, addend: 0x0, symName: __ZNSt3__13minB8ue170006ImNS_6__lessIvvEEEERKT_S5_S5_T0_, symObjAddr: 0x1CC4, symBinAddr: 0x1000054D4, symSize: 0x54 }
  - { offsetInCU: 0x10CFE, offset: 0x10CFE, size: 0x8, addend: 0x0, symName: __ZNSt3__120__throw_length_errorB8ue170006EPKc, symObjAddr: 0x1DA0, symBinAddr: 0x1000055B0, symSize: 0x64 }
  - { offsetInCU: 0x10D28, offset: 0x10D28, size: 0x8, addend: 0x0, symName: __ZNSt3__117__libcpp_allocateB8ue170006Emm, symObjAddr: 0x1F10, symBinAddr: 0x100005720, symSize: 0x60 }
  - { offsetInCU: 0x10D84, offset: 0x10D84, size: 0x8, addend: 0x0, symName: __ZNSt3__124__is_overaligned_for_newB8ue170006Em, symObjAddr: 0x1F70, symBinAddr: 0x100005780, symSize: 0x20 }
  - { offsetInCU: 0x10DB2, offset: 0x10DB2, size: 0x8, addend: 0x0, symName: __ZNSt3__121__libcpp_operator_newB8ue170006IJmSt11align_val_tEEEPvDpT_, symObjAddr: 0x1F90, symBinAddr: 0x1000057A0, symSize: 0x2C }
  - { offsetInCU: 0x10DFF, offset: 0x10DFF, size: 0x8, addend: 0x0, symName: __ZNSt3__121__libcpp_operator_newB8ue170006IJmEEEPvDpT_, symObjAddr: 0x1FBC, symBinAddr: 0x1000057CC, symSize: 0x24 }
  - { offsetInCU: 0x10E38, offset: 0x10E38, size: 0x8, addend: 0x0, symName: __ZNSt3__112__to_addressB8ue170006IdEEPT_S2_, symObjAddr: 0x20D8, symBinAddr: 0x1000058E8, symSize: 0x14 }
  - { offsetInCU: 0x10E6E, offset: 0x10E6E, size: 0x8, addend: 0x0, symName: __ZNSt3__119__libcpp_deallocateB8ue170006EPvmm, symObjAddr: 0x258C, symBinAddr: 0x100005D9C, symSize: 0x60 }
  - { offsetInCU: 0x10ED5, offset: 0x10ED5, size: 0x8, addend: 0x0, symName: __ZNSt3__127__do_deallocate_handle_sizeB8ue170006IJSt11align_val_tEEEvPvmDpT_, symObjAddr: 0x25EC, symBinAddr: 0x100005DFC, symSize: 0x30 }
  - { offsetInCU: 0x10F29, offset: 0x10F29, size: 0x8, addend: 0x0, symName: __ZNSt3__127__do_deallocate_handle_sizeB8ue170006IJEEEvPvmDpT_, symObjAddr: 0x261C, symBinAddr: 0x100005E2C, symSize: 0x28 }
  - { offsetInCU: 0x10F68, offset: 0x10F68, size: 0x8, addend: 0x0, symName: __ZNSt3__124__libcpp_operator_deleteB8ue170006IJPvSt11align_val_tEEEvDpT_, symObjAddr: 0x2644, symBinAddr: 0x100005E54, symSize: 0x2C }
  - { offsetInCU: 0x10FB2, offset: 0x10FB2, size: 0x8, addend: 0x0, symName: __ZNSt3__124__libcpp_operator_deleteB8ue170006IJPvEEEvDpT_, symObjAddr: 0x2670, symBinAddr: 0x100005E80, symSize: 0x24 }
  - { offsetInCU: 0x11005, offset: 0x11005, size: 0x8, addend: 0x0, symName: __ZNSt3__18distanceB8ue170006IPKcEENS_15iterator_traitsIT_E15difference_typeES4_S4_, symObjAddr: 0x2CBC, symBinAddr: 0x1000064CC, symSize: 0x2C }
  - { offsetInCU: 0x11048, offset: 0x11048, size: 0x8, addend: 0x0, symName: __ZNSt3__110__distanceB8ue170006IPKcEENS_15iterator_traitsIT_E15difference_typeES4_S4_NS_26random_access_iterator_tagE, symObjAddr: 0x3020, symBinAddr: 0x100006830, symSize: 0x20 }
  - { offsetInCU: 0x11095, offset: 0x11095, size: 0x8, addend: 0x0, symName: __ZNSt3__121__is_pointer_in_rangeB8ue170006IccLi0EEEbPKT_S3_PKT0_, symObjAddr: 0x3040, symBinAddr: 0x100006850, symSize: 0x68 }
  - { offsetInCU: 0x11128, offset: 0x11128, size: 0x8, addend: 0x0, symName: __ZNSt3__119__allocate_at_leastB8ue170006INS_9allocatorIcEEEENS_19__allocation_resultINS_16allocator_traitsIT_E7pointerEEERS5_m, symObjAddr: 0x358C, symBinAddr: 0x100006D9C, symSize: 0x40 }
  - { offsetInCU: 0x11357, offset: 0x11357, size: 0x8, addend: 0x0, symName: __ZNSt3__112__to_addressB8ue170006IKcEEPT_S3_, symObjAddr: 0x3830, symBinAddr: 0x100007040, symSize: 0x14 }
  - { offsetInCU: 0x113BF, offset: 0x113BF, size: 0x8, addend: 0x0, symName: __ZNSt3__112__to_addressB8ue170006IcEEPT_S2_, symObjAddr: 0x3A6C, symBinAddr: 0x10000727C, symSize: 0x14 }
  - { offsetInCU: 0x113F4, offset: 0x113F4, size: 0x8, addend: 0x0, symName: __ZNSt3__118__constexpr_strlenB8ue170006EPKc, symObjAddr: 0x3B04, symBinAddr: 0x100007314, symSize: 0x24 }
  - { offsetInCU: 0x11420, offset: 0x11420, size: 0x8, addend: 0x0, symName: __ZNSt3__14copyB8ue170006IPKcPcEET0_T_S5_S4_, symObjAddr: 0x3CA8, symBinAddr: 0x1000074B8, symSize: 0x40 }
  - { offsetInCU: 0x1147A, offset: 0x1147A, size: 0x8, addend: 0x0, symName: __ZNSt3__16__copyB8ue170006INS_17_ClassicAlgPolicyEPKcS3_PcEENS_4pairIT0_T2_EES6_T1_S7_, symObjAddr: 0x3CE8, symBinAddr: 0x1000074F8, symSize: 0x44 }
  - { offsetInCU: 0x114E6, offset: 0x114E6, size: 0x8, addend: 0x0, symName: __ZNSt3__123__dispatch_copy_or_moveB8ue170006INS_17_ClassicAlgPolicyENS_11__copy_loopIS1_EENS_14__copy_trivialEPKcS6_PcEENS_4pairIT2_T4_EES9_T3_SA_, symObjAddr: 0x3D2C, symBinAddr: 0x10000753C, symSize: 0x44 }
  - { offsetInCU: 0x11564, offset: 0x11564, size: 0x8, addend: 0x0, symName: __ZNSt3__121__unwrap_and_dispatchB8ue170006INS_10__overloadINS_11__copy_loopINS_17_ClassicAlgPolicyEEENS_14__copy_trivialEEEPKcS8_PcLi0EEENS_4pairIT0_T2_EESB_T1_SC_, symObjAddr: 0x3D70, symBinAddr: 0x100007580, symSize: 0xB4 }
  - { offsetInCU: 0x115F2, offset: 0x115F2, size: 0x8, addend: 0x0, symName: __ZNSt3__114__unwrap_rangeB8ue170006IPKcS2_EENS_4pairIT0_S4_EET_S6_, symObjAddr: 0x3E24, symBinAddr: 0x100007634, symSize: 0x60 }
  - { offsetInCU: 0x117FF, offset: 0x117FF, size: 0x8, addend: 0x0, symName: __ZNSt3__113__unwrap_iterB8ue170006IPcNS_18__unwrap_iter_implIS1_Lb1EEELi0EEEDTclsrT0_8__unwrapclsr3stdE7declvalIT_EEEES5_, symObjAddr: 0x3ECC, symBinAddr: 0x1000076DC, symSize: 0x24 }
  - { offsetInCU: 0x11843, offset: 0x11843, size: 0x8, addend: 0x0, symName: __ZNSt3__19make_pairB8ue170006IPKcPcEENS_4pairINS_18__unwrap_ref_decayIT_E4typeENS5_IT0_E4typeEEEOS6_OS9_, symObjAddr: 0x3EF0, symBinAddr: 0x100007700, symSize: 0x38 }
  - { offsetInCU: 0x11892, offset: 0x11892, size: 0x8, addend: 0x0, symName: __ZNSt3__114__rewrap_rangeB8ue170006IPKcS2_EET_S3_T0_, symObjAddr: 0x3F28, symBinAddr: 0x100007738, symSize: 0x2C }
  - { offsetInCU: 0x118DE, offset: 0x118DE, size: 0x8, addend: 0x0, symName: __ZNSt3__113__rewrap_iterB8ue170006IPcS1_NS_18__unwrap_iter_implIS1_Lb1EEEEET_S4_T0_, symObjAddr: 0x3F54, symBinAddr: 0x100007764, symSize: 0x3C }
  - { offsetInCU: 0x11933, offset: 0x11933, size: 0x8, addend: 0x0, symName: __ZNSt3__19make_pairB8ue170006IPKcS2_EENS_4pairINS_18__unwrap_ref_decayIT_E4typeENS4_IT0_E4typeEEEOS5_OS8_, symObjAddr: 0x3F90, symBinAddr: 0x1000077A0, symSize: 0x38 }
  - { offsetInCU: 0x11982, offset: 0x11982, size: 0x8, addend: 0x0, symName: __ZNSt3__113__unwrap_iterB8ue170006IPKcNS_18__unwrap_iter_implIS2_Lb1EEELi0EEEDTclsrT0_8__unwrapclsr3stdE7declvalIT_EEEES6_, symObjAddr: 0x3FC8, symBinAddr: 0x1000077D8, symSize: 0x24 }
  - { offsetInCU: 0x11AED, offset: 0x11AED, size: 0x8, addend: 0x0, symName: __ZNSt3__119__copy_trivial_implB8ue170006IKccEENS_4pairIPT_PT0_EES4_S4_S6_, symObjAddr: 0x4080, symBinAddr: 0x100007890, symSize: 0x78 }
  - { offsetInCU: 0x11B55, offset: 0x11B55, size: 0x8, addend: 0x0, symName: __ZNSt3__119__constexpr_memmoveB8ue170006IcKcLi0EEEPT_S3_PT0_NS_15__element_countE, symObjAddr: 0x40F8, symBinAddr: 0x100007908, symSize: 0x64 }
  - { offsetInCU: 0x11BC3, offset: 0x11BC3, size: 0x8, addend: 0x0, symName: __ZNSt3__19make_pairB8ue170006IRPKcPcEENS_4pairINS_18__unwrap_ref_decayIT_E4typeENS6_IT0_E4typeEEEOS7_OSA_, symObjAddr: 0x415C, symBinAddr: 0x10000796C, symSize: 0x38 }
  - { offsetInCU: 0x11C65, offset: 0x11C65, size: 0x8, addend: 0x0, symName: __ZNSt3__113__rewrap_iterB8ue170006IPKcS2_NS_18__unwrap_iter_implIS2_Lb1EEEEET_S5_T0_, symObjAddr: 0x4298, symBinAddr: 0x100007AA8, symSize: 0x3C }
  - { offsetInCU: 0x11CBA, offset: 0x11CBA, size: 0x8, addend: 0x0, symName: __ZNSt3__16fill_nB8ue170006IPcmcEET_S2_T0_RKT1_, symObjAddr: 0x4364, symBinAddr: 0x100007B74, symSize: 0x44 }
  - { offsetInCU: 0x11D1D, offset: 0x11D1D, size: 0x8, addend: 0x0, symName: __ZNSt3__18__fill_nB8ue170006IPcmcEET_S2_T0_RKT1_, symObjAddr: 0x43A8, symBinAddr: 0x100007BB8, symSize: 0x64 }
  - { offsetInCU: 0x11D80, offset: 0x11D80, size: 0x8, addend: 0x0, symName: __ZNSt3__121__convert_to_integralB8ue170006Em, symObjAddr: 0x440C, symBinAddr: 0x100007C1C, symSize: 0x14 }
  - { offsetInCU: 0x11DAD, offset: 0x11DAD, size: 0x8, addend: 0x0, symName: __ZNSt3__125__throw_bad_function_callB8ue170006Ev, symObjAddr: 0x44B0, symBinAddr: 0x100007CC0, symSize: 0x38 }
  - { offsetInCU: 0x1266D, offset: 0x1266D, size: 0x8, addend: 0x0, symName: __ZNSt3__1lsB8ue170006INS_11char_traitsIcEEEERNS_13basic_ostreamIcT_EES6_PKc, symObjAddr: 0x4794, symBinAddr: 0x100007FA4, symSize: 0x48 }
  - { offsetInCU: 0x126BE, offset: 0x126BE, size: 0x8, addend: 0x0, symName: __ZNSt3__116__pad_and_outputB8ue170006IcNS_11char_traitsIcEEEENS_19ostreambuf_iteratorIT_T0_EES6_PKS4_S8_S8_RNS_8ios_baseES4_, symObjAddr: 0x4C8C, symBinAddr: 0x10000849C, symSize: 0x240 }
  - { offsetInCU: 0x1278D, offset: 0x1278D, size: 0x8, addend: 0x0, symName: __ZNSt3__19use_facetB8ue170006INS_5ctypeIcEEEERKT_RKNS_6localeE, symObjAddr: 0x520C, symBinAddr: 0x100008A1C, symSize: 0x2C }
  - { offsetInCU: 0x12C5B, offset: 0x12C5B, size: 0x8, addend: 0x0, symName: __ZNSt3__120__throw_out_of_rangeB8ue170006EPKc, symObjAddr: 0x52EC, symBinAddr: 0x100008AFC, symSize: 0x64 }
  - { offsetInCU: 0x12C85, offset: 0x12C85, size: 0x8, addend: 0x0, symName: __ZNSt3__1plB8ue170006IcNS_11char_traitsIcEENS_9allocatorIcEEEENS_12basic_stringIT_T0_T1_EEOS9_SA_, symObjAddr: 0x596C, symBinAddr: 0x10000917C, symSize: 0x40 }
  - { offsetInCU: 0x12CDD, offset: 0x12CDD, size: 0x8, addend: 0x0, symName: __ZNSt3__1plB8ue170006IcNS_11char_traitsIcEENS_9allocatorIcEEEENS_12basic_stringIT_T0_T1_EEPKS6_OS9_, symObjAddr: 0x59F8, symBinAddr: 0x100009208, symSize: 0x44 }
  - { offsetInCU: 0x12D35, offset: 0x12D35, size: 0x8, addend: 0x0, symName: __ZNSt3__130__uninitialized_allocator_copyB8ue170006INS_9allocatorIdEEPKdS4_PdEET2_RT_T0_T1_S6_, symObjAddr: 0x5FE4, symBinAddr: 0x1000097F4, symSize: 0x80 }
  - { offsetInCU: 0x12DD2, offset: 0x12DD2, size: 0x8, addend: 0x0, symName: __ZNSt3__114__unwrap_rangeB8ue170006IPKdS2_EENS_4pairIT0_S4_EET_S6_, symObjAddr: 0x6064, symBinAddr: 0x100009874, symSize: 0x60 }
  - { offsetInCU: 0x12E1E, offset: 0x12E1E, size: 0x8, addend: 0x0, symName: __ZNSt3__135__uninitialized_allocator_copy_implB8ue170006INS_9allocatorIdEEKdddLPv0EEEPT2_RT_PT0_SA_S6_, symObjAddr: 0x60C4, symBinAddr: 0x1000098D4, symSize: 0x38 }
  - { offsetInCU: 0x12EA0, offset: 0x12EA0, size: 0x8, addend: 0x0, symName: __ZNSt3__113__unwrap_iterB8ue170006IPdNS_18__unwrap_iter_implIS1_Lb1EEELi0EEEDTclsrT0_8__unwrapclsr3stdE7declvalIT_EEEES5_, symObjAddr: 0x60FC, symBinAddr: 0x10000990C, symSize: 0x24 }
  - { offsetInCU: 0x12EE4, offset: 0x12EE4, size: 0x8, addend: 0x0, symName: __ZNSt3__113__rewrap_iterB8ue170006IPdS1_NS_18__unwrap_iter_implIS1_Lb1EEEEET_S4_T0_, symObjAddr: 0x6120, symBinAddr: 0x100009930, symSize: 0x3C }
  - { offsetInCU: 0x12F39, offset: 0x12F39, size: 0x8, addend: 0x0, symName: __ZNSt3__19make_pairB8ue170006IPKdS2_EENS_4pairINS_18__unwrap_ref_decayIT_E4typeENS4_IT0_E4typeEEEOS5_OS8_, symObjAddr: 0x615C, symBinAddr: 0x10000996C, symSize: 0x38 }
  - { offsetInCU: 0x12F88, offset: 0x12F88, size: 0x8, addend: 0x0, symName: __ZNSt3__113__unwrap_iterB8ue170006IPKdNS_18__unwrap_iter_implIS2_Lb1EEELi0EEEDTclsrT0_8__unwrapclsr3stdE7declvalIT_EEEES6_, symObjAddr: 0x6194, symBinAddr: 0x1000099A4, symSize: 0x24 }
  - { offsetInCU: 0x130F3, offset: 0x130F3, size: 0x8, addend: 0x0, symName: __ZNSt3__112__to_addressB8ue170006IKdEEPT_S3_, symObjAddr: 0x624C, symBinAddr: 0x100009A5C, symSize: 0x14 }
  - { offsetInCU: 0x13128, offset: 0x13128, size: 0x8, addend: 0x0, symName: __ZNSt3__14copyB8ue170006IPKdPdEET0_T_S5_S4_, symObjAddr: 0x6260, symBinAddr: 0x100009A70, symSize: 0x40 }
  - { offsetInCU: 0x13182, offset: 0x13182, size: 0x8, addend: 0x0, symName: __ZNSt3__16__copyB8ue170006INS_17_ClassicAlgPolicyEPKdS3_PdEENS_4pairIT0_T2_EES6_T1_S7_, symObjAddr: 0x62A0, symBinAddr: 0x100009AB0, symSize: 0x44 }
  - { offsetInCU: 0x131EE, offset: 0x131EE, size: 0x8, addend: 0x0, symName: __ZNSt3__123__dispatch_copy_or_moveB8ue170006INS_17_ClassicAlgPolicyENS_11__copy_loopIS1_EENS_14__copy_trivialEPKdS6_PdEENS_4pairIT2_T4_EES9_T3_SA_, symObjAddr: 0x62E4, symBinAddr: 0x100009AF4, symSize: 0x44 }
  - { offsetInCU: 0x1326C, offset: 0x1326C, size: 0x8, addend: 0x0, symName: __ZNSt3__121__unwrap_and_dispatchB8ue170006INS_10__overloadINS_11__copy_loopINS_17_ClassicAlgPolicyEEENS_14__copy_trivialEEEPKdS8_PdLi0EEENS_4pairIT0_T2_EESB_T1_SC_, symObjAddr: 0x6328, symBinAddr: 0x100009B38, symSize: 0xB4 }
  - { offsetInCU: 0x133FD, offset: 0x133FD, size: 0x8, addend: 0x0, symName: __ZNSt3__19make_pairB8ue170006IPKdPdEENS_4pairINS_18__unwrap_ref_decayIT_E4typeENS5_IT0_E4typeEEEOS6_OS9_, symObjAddr: 0x6424, symBinAddr: 0x100009C34, symSize: 0x38 }
  - { offsetInCU: 0x1344C, offset: 0x1344C, size: 0x8, addend: 0x0, symName: __ZNSt3__114__rewrap_rangeB8ue170006IPKdS2_EET_S3_T0_, symObjAddr: 0x645C, symBinAddr: 0x100009C6C, symSize: 0x2C }
  - { offsetInCU: 0x13498, offset: 0x13498, size: 0x8, addend: 0x0, symName: __ZNSt3__119__copy_trivial_implB8ue170006IKddEENS_4pairIPT_PT0_EES4_S4_S6_, symObjAddr: 0x6488, symBinAddr: 0x100009C98, symSize: 0x80 }
  - { offsetInCU: 0x13500, offset: 0x13500, size: 0x8, addend: 0x0, symName: __ZNSt3__119__constexpr_memmoveB8ue170006IdKdLi0EEEPT_S3_PT0_NS_15__element_countE, symObjAddr: 0x6508, symBinAddr: 0x100009D18, symSize: 0x64 }
  - { offsetInCU: 0x1356E, offset: 0x1356E, size: 0x8, addend: 0x0, symName: __ZNSt3__19make_pairB8ue170006IRPKdPdEENS_4pairINS_18__unwrap_ref_decayIT_E4typeENS6_IT0_E4typeEEEOS7_OSA_, symObjAddr: 0x656C, symBinAddr: 0x100009D7C, symSize: 0x38 }
  - { offsetInCU: 0x135BD, offset: 0x135BD, size: 0x8, addend: 0x0, symName: __ZNSt3__113__rewrap_iterB8ue170006IPKdS2_NS_18__unwrap_iter_implIS2_Lb1EEEEET_S5_T0_, symObjAddr: 0x6684, symBinAddr: 0x100009E94, symSize: 0x3C }
  - { offsetInCU: 0x13665, offset: 0x13665, size: 0x8, addend: 0x0, symName: __ZNSt3__1plB8ue170006IcNS_11char_traitsIcEENS_9allocatorIcEEEENS_12basic_stringIT_T0_T1_EEOS9_RKS9_, symObjAddr: 0x6784, symBinAddr: 0x100009F94, symSize: 0x40 }
  - { offsetInCU: 0x136BD, offset: 0x136BD, size: 0x8, addend: 0x0, symName: __ZNSt3__1neB8ue170006IPKdEEbRKNS_11__wrap_iterIT_EES7_, symObjAddr: 0x6824, symBinAddr: 0x10000A034, symSize: 0x34 }
  - { offsetInCU: 0x13700, offset: 0x13700, size: 0x8, addend: 0x0, symName: __ZNSt3__1eqB8ue170006IPKdEEbRKNS_11__wrap_iterIT_EES7_, symObjAddr: 0x6914, symBinAddr: 0x10000A124, symSize: 0x48 }
  - { offsetInCU: 0x13743, offset: 0x13743, size: 0x8, addend: 0x0, symName: __ZNSt3__18distanceB8ue170006IPdEENS_15iterator_traitsIT_E15difference_typeES3_S3_, symObjAddr: 0x6BDC, symBinAddr: 0x10000A3EC, symSize: 0x2C }
  - { offsetInCU: 0x13786, offset: 0x13786, size: 0x8, addend: 0x0, symName: __ZNSt3__14nextB8ue170006IPdEENS_9enable_ifIXsr29__has_input_iterator_categoryIT_EE5valueES3_E4typeES3_NS_15iterator_traitsIS3_E15difference_typeE, symObjAddr: 0x6C08, symBinAddr: 0x10000A418, symSize: 0x34 }
  - { offsetInCU: 0x137C9, offset: 0x137C9, size: 0x8, addend: 0x0, symName: __ZNSt3__14copyB8ue170006IPdS1_EET0_T_S3_S2_, symObjAddr: 0x6C3C, symBinAddr: 0x10000A44C, symSize: 0x40 }
  - { offsetInCU: 0x13823, offset: 0x13823, size: 0x8, addend: 0x0, symName: __ZNSt3__16__copyB8ue170006INS_17_ClassicAlgPolicyEPdS2_S2_EENS_4pairIT0_T2_EES4_T1_S5_, symObjAddr: 0x6D08, symBinAddr: 0x10000A518, symSize: 0x44 }
  - { offsetInCU: 0x1388F, offset: 0x1388F, size: 0x8, addend: 0x0, symName: __ZNSt3__121__convert_to_integralB8ue170006El, symObjAddr: 0x6F18, symBinAddr: 0x10000A728, symSize: 0x14 }
  - { offsetInCU: 0x138BC, offset: 0x138BC, size: 0x8, addend: 0x0, symName: __ZNSt3__19__advanceB8ue170006IPdEEvRT_NS_15iterator_traitsIS2_E15difference_typeENS_26random_access_iterator_tagE, symObjAddr: 0x6F2C, symBinAddr: 0x10000A73C, symSize: 0x28 }
  - { offsetInCU: 0x13905, offset: 0x13905, size: 0x8, addend: 0x0, symName: __ZNSt3__130__uninitialized_allocator_copyB8ue170006INS_9allocatorIdEEPdS3_S3_EET2_RT_T0_T1_S4_, symObjAddr: 0x6F54, symBinAddr: 0x10000A764, symSize: 0x80 }
  - { offsetInCU: 0x139A2, offset: 0x139A2, size: 0x8, addend: 0x0, symName: __ZNSt3__114__unwrap_rangeB8ue170006IPdS1_EENS_4pairIT0_S3_EET_S5_, symObjAddr: 0x6FD4, symBinAddr: 0x10000A7E4, symSize: 0x60 }
  - { offsetInCU: 0x139EE, offset: 0x139EE, size: 0x8, addend: 0x0, symName: __ZNSt3__135__uninitialized_allocator_copy_implB8ue170006INS_9allocatorIdEEdddLPv0EEEPT2_RT_PT0_S9_S5_, symObjAddr: 0x7034, symBinAddr: 0x10000A844, symSize: 0x38 }
  - { offsetInCU: 0x13A70, offset: 0x13A70, size: 0x8, addend: 0x0, symName: __ZNSt3__19make_pairB8ue170006IPdS1_EENS_4pairINS_18__unwrap_ref_decayIT_E4typeENS3_IT0_E4typeEEEOS4_OS7_, symObjAddr: 0x706C, symBinAddr: 0x10000A87C, symSize: 0x38 }
  - { offsetInCU: 0x13BC2, offset: 0x13BC2, size: 0x8, addend: 0x0, symName: __ZNSt3__123__dispatch_copy_or_moveB8ue170006INS_17_ClassicAlgPolicyENS_11__copy_loopIS1_EENS_14__copy_trivialEPdS5_S5_EENS_4pairIT2_T4_EES7_T3_S8_, symObjAddr: 0x7114, symBinAddr: 0x10000A924, symSize: 0x44 }
  - { offsetInCU: 0x13C40, offset: 0x13C40, size: 0x8, addend: 0x0, symName: __ZNSt3__121__unwrap_and_dispatchB8ue170006INS_10__overloadINS_11__copy_loopINS_17_ClassicAlgPolicyEEENS_14__copy_trivialEEEPdS7_S7_Li0EEENS_4pairIT0_T2_EES9_T1_SA_, symObjAddr: 0x7158, symBinAddr: 0x10000A968, symSize: 0xB4 }
  - { offsetInCU: 0x13CCE, offset: 0x13CCE, size: 0x8, addend: 0x0, symName: __ZNSt3__114__rewrap_rangeB8ue170006IPdS1_EET_S2_T0_, symObjAddr: 0x7254, symBinAddr: 0x10000AA64, symSize: 0x2C }
  - { offsetInCU: 0x13D1A, offset: 0x13D1A, size: 0x8, addend: 0x0, symName: __ZNSt3__119__copy_trivial_implB8ue170006IddEENS_4pairIPT_PT0_EES3_S3_S5_, symObjAddr: 0x7280, symBinAddr: 0x10000AA90, symSize: 0x80 }
  - { offsetInCU: 0x13D82, offset: 0x13D82, size: 0x8, addend: 0x0, symName: __ZNSt3__119__constexpr_memmoveB8ue170006IddLi0EEEPT_S2_PT0_NS_15__element_countE, symObjAddr: 0x7300, symBinAddr: 0x10000AB10, symSize: 0x64 }
  - { offsetInCU: 0x13DF0, offset: 0x13DF0, size: 0x8, addend: 0x0, symName: __ZNSt3__19make_pairB8ue170006IRPdS1_EENS_4pairINS_18__unwrap_ref_decayIT_E4typeENS4_IT0_E4typeEEEOS5_OS8_, symObjAddr: 0x7364, symBinAddr: 0x10000AB74, symSize: 0x38 }
  - { offsetInCU: 0x13E3F, offset: 0x13E3F, size: 0x8, addend: 0x0, symName: __ZNSt3__13maxB8ue170006ImEERKT_S3_S3_, symObjAddr: 0x7504, symBinAddr: 0x10000AD14, symSize: 0x2C }
  - { offsetInCU: 0x13E82, offset: 0x13E82, size: 0x8, addend: 0x0, symName: __ZNSt3__13maxB8ue170006ImNS_6__lessIvvEEEERKT_S5_S5_T0_, symObjAddr: 0x7530, symBinAddr: 0x10000AD40, symSize: 0x54 }
  - { offsetInCU: 0x13EDC, offset: 0x13EDC, size: 0x8, addend: 0x0, symName: __ZNSt3__110__distanceB8ue170006IPdEENS_15iterator_traitsIT_E15difference_typeES3_S3_NS_26random_access_iterator_tagE, symObjAddr: 0x7584, symBinAddr: 0x10000AD94, symSize: 0x28 }
  - { offsetInCU: 0x14572, offset: 0x14572, size: 0x8, addend: 0x0, symName: '__ZNSt3__116forward_as_tupleB8ue170006IJZ17AdvectionSolutionNS_8functionIFddEEEdE3$_0EEENS_5tupleIJDpOT_EEES8_', symObjAddr: 0x8674, symBinAddr: 0x10000BE84, symSize: 0x2C }
  - { offsetInCU: 0x145AC, offset: 0x145AC, size: 0x8, addend: 0x0, symName: '__ZNSt3__116forward_as_tupleB8ue170006IJNS_9allocatorIZ17AdvectionSolutionNS_8functionIFddEEEdE3$_0EEEEENS_5tupleIJDpOT_EEESA_', symObjAddr: 0x86A0, symBinAddr: 0x10000BEB0, symSize: 0x2C }
  - { offsetInCU: 0x1462B, offset: 0x1462B, size: 0x8, addend: 0x0, symName: '__ZNSt3__13getB8ue170006ILm0EJOZ17AdvectionSolutionNS_8functionIFddEEEdE3$_0EEERNS_13tuple_elementIXT_ENS_5tupleIJDpT0_EEEE4typeERSA_', symObjAddr: 0x8A0C, symBinAddr: 0x10000C21C, symSize: 0x24 }
  - { offsetInCU: 0x1466F, offset: 0x1466F, size: 0x8, addend: 0x0, symName: '__ZNSt3__13getB8ue170006ILm0EJONS_9allocatorIZ17AdvectionSolutionNS_8functionIFddEEEdE3$_0EEEEERNS_13tuple_elementIXT_ENS_5tupleIJDpT0_EEEE4typeERSC_', symObjAddr: 0x8C1C, symBinAddr: 0x10000C42C, symSize: 0x24 }
  - { offsetInCU: 0x14840, offset: 0x14840, size: 0x8, addend: 0x0, symName: '__ZNSt3__116forward_as_tupleB8ue170006IJRKZ17AdvectionSolutionNS_8functionIFddEEEdE3$_0EEENS_5tupleIJDpOT_EEESA_', symObjAddr: 0x90E4, symBinAddr: 0x10000C8F4, symSize: 0x2C }
  - { offsetInCU: 0x1488F, offset: 0x1488F, size: 0x8, addend: 0x0, symName: '__ZNSt3__13getB8ue170006ILm0EJRKZ17AdvectionSolutionNS_8functionIFddEEEdE3$_0EEERNS_13tuple_elementIXT_ENS_5tupleIJDpT0_EEEE4typeERSB_', symObjAddr: 0x92D4, symBinAddr: 0x10000CAE4, symSize: 0x24 }
  - { offsetInCU: 0x148D3, offset: 0x148D3, size: 0x8, addend: 0x0, symName: '__ZNSt3__116forward_as_tupleB8ue170006IJRKNS_9allocatorIZ17AdvectionSolutionNS_8functionIFddEEEdE3$_0EEEEENS_5tupleIJDpOT_EEESC_', symObjAddr: 0x96A8, symBinAddr: 0x10000CEB8, symSize: 0x2C }
  - { offsetInCU: 0x14922, offset: 0x14922, size: 0x8, addend: 0x0, symName: '__ZNSt3__13getB8ue170006ILm0EJRKNS_9allocatorIZ17AdvectionSolutionNS_8functionIFddEEEdE3$_0EEEEERNS_13tuple_elementIXT_ENS_5tupleIJDpT0_EEEE4typeERSD_', symObjAddr: 0x98B4, symBinAddr: 0x10000D0C4, symSize: 0x24 }
  - { offsetInCU: 0x149E0, offset: 0x149E0, size: 0x8, addend: 0x0, symName: '__ZNSt3__18__invokeB8ue170006IRZ17AdvectionSolutionNS_8functionIFddEEEdE3$_0JddEEEDTclclsr3stdE7declvalIT_EEspclsr3stdE7declvalIT0_EEEEOS6_DpOS7_', symObjAddr: 0x99A4, symBinAddr: 0x10000D1B4, symSize: 0x3C }
  - { offsetInCU: 0x14BA8, offset: 0x14BA8, size: 0x8, addend: 0x0, symName: __ZNSt3__116forward_as_tupleB8ue170006IJPFddEEEENS_5tupleIJDpOT_EEES6_, symObjAddr: 0xA37C, symBinAddr: 0x10000DB8C, symSize: 0x2C }
  - { offsetInCU: 0x14BE1, offset: 0x14BE1, size: 0x8, addend: 0x0, symName: __ZNSt3__116forward_as_tupleB8ue170006IJNS_9allocatorIPFddEEEEEENS_5tupleIJDpOT_EEES8_, symObjAddr: 0xA3A8, symBinAddr: 0x10000DBB8, symSize: 0x2C }
  - { offsetInCU: 0x14C44, offset: 0x14C44, size: 0x8, addend: 0x0, symName: __ZNSt3__13getB8ue170006ILm0EJOPFddEEEERNS_13tuple_elementIXT_ENS_5tupleIJDpT0_EEEE4typeERS8_, symObjAddr: 0xA6C0, symBinAddr: 0x10000DED0, symSize: 0x24 }
  - { offsetInCU: 0x14C87, offset: 0x14C87, size: 0x8, addend: 0x0, symName: __ZNSt3__13getB8ue170006ILm0EJONS_9allocatorIPFddEEEEEERNS_13tuple_elementIXT_ENS_5tupleIJDpT0_EEEE4typeERSA_, symObjAddr: 0xA6FC, symBinAddr: 0x10000DF0C, symSize: 0x24 }
  - { offsetInCU: 0x151AE, offset: 0x151AE, size: 0x8, addend: 0x0, symName: __ZNSt3__116forward_as_tupleB8ue170006IJRKPFddEEEENS_5tupleIJDpOT_EEES8_, symObjAddr: 0xAC90, symBinAddr: 0x10000E4A0, symSize: 0x2C }
  - { offsetInCU: 0x151FC, offset: 0x151FC, size: 0x8, addend: 0x0, symName: __ZNSt3__13getB8ue170006ILm0EJRKPFddEEEERNS_13tuple_elementIXT_ENS_5tupleIJDpT0_EEEE4typeERS9_, symObjAddr: 0xAE80, symBinAddr: 0x10000E690, symSize: 0x24 }
  - { offsetInCU: 0x1523F, offset: 0x1523F, size: 0x8, addend: 0x0, symName: __ZNSt3__116forward_as_tupleB8ue170006IJRKNS_9allocatorIPFddEEEEEENS_5tupleIJDpOT_EEESA_, symObjAddr: 0xB1DC, symBinAddr: 0x10000E9EC, symSize: 0x2C }
  - { offsetInCU: 0x1528D, offset: 0x1528D, size: 0x8, addend: 0x0, symName: __ZNSt3__13getB8ue170006ILm0EJRKNS_9allocatorIPFddEEEEEERNS_13tuple_elementIXT_ENS_5tupleIJDpT0_EEEE4typeERSB_, symObjAddr: 0xB3C0, symBinAddr: 0x10000EBD0, symSize: 0x24 }
  - { offsetInCU: 0x152D0, offset: 0x152D0, size: 0x8, addend: 0x0, symName: __ZNSt3__18__invokeB8ue170006IRPFddEJdEEEDTclclsr3stdE7declvalIT_EEspclsr3stdE7declvalIT0_EEEEOS4_DpOS5_, symObjAddr: 0xB48C, symBinAddr: 0x10000EC9C, symSize: 0x34 }
  - { offsetInCU: 0x15BBF, offset: 0x15BBF, size: 0x8, addend: 0x0, symName: __ZSt28__throw_bad_array_new_lengthB8ue170006v, symObjAddr: 0x1EDC, symBinAddr: 0x1000056EC, symSize: 0x34 }
  - { offsetInCU: 0x1694F, offset: 0x1694F, size: 0x8, addend: 0x0, symName: __Z17AdvectionSolutionNSt3__18functionIFddEEEd, symObjAddr: 0x5C, symBinAddr: 0x10000386C, symSize: 0xB0 }
  - { offsetInCU: 0x19253, offset: 0x19253, size: 0x8, addend: 0x0, symName: __Z22IndicatorInitConditiond, symObjAddr: 0x0, symBinAddr: 0x100003810, symSize: 0x5C }
  - { offsetInCU: 0x19280, offset: 0x19280, size: 0x8, addend: 0x0, symName: __ZNSt3__18functionIFddEEC1ERKS2_, symObjAddr: 0x10C, symBinAddr: 0x10000391C, symSize: 0x34 }
  - { offsetInCU: 0x192DE, offset: 0x192DE, size: 0x8, addend: 0x0, symName: '__ZNSt3__18functionIFdddEEC1IZ17AdvectionSolutionNS0_IFddEEEdE3$_0vEET_', symObjAddr: 0x140, symBinAddr: 0x100003950, symSize: 0x34 }
  - { offsetInCU: 0x1932A, offset: 0x1932A, size: 0x8, addend: 0x0, symName: '__ZZ17AdvectionSolutionNSt3__18functionIFddEEEdEN3$_0D1Ev', symObjAddr: 0x174, symBinAddr: 0x100003984, symSize: 0x2C }
  - { offsetInCU: 0x19355, offset: 0x19355, size: 0x8, addend: 0x0, symName: __Z16Run_Warming_Beamv, symObjAddr: 0x1A0, symBinAddr: 0x1000039B0, symSize: 0x17C }
  - { offsetInCU: 0x194C6, offset: 0x194C6, size: 0x8, addend: 0x0, symName: __ZN22Advection_Warming_BeamC1Ed, symObjAddr: 0x31C, symBinAddr: 0x100003B2C, symSize: 0x34 }
  - { offsetInCU: 0x19504, offset: 0x19504, size: 0x8, addend: 0x0, symName: __ZNSt3__112basic_stringIcNS_11char_traitsIcEENS_9allocatorIcEEEC1B8ue170006ILi0EEEPKc, symObjAddr: 0x350, symBinAddr: 0x100003B60, symSize: 0x34 }
  - { offsetInCU: 0x19543, offset: 0x19543, size: 0x8, addend: 0x0, symName: __ZNSt3__18functionIFddEEC1IPS1_vEET_, symObjAddr: 0x384, symBinAddr: 0x100003B94, symSize: 0x34 }
  - { offsetInCU: 0x196CB, offset: 0x196CB, size: 0x8, addend: 0x0, symName: __ZN15NumericalSchemeC1EiNSt3__18functionIFddEEER13IterativeRuleRNS0_12basic_stringIcNS0_11char_traitsIcEENS0_9allocatorIcEEEEdi, symObjAddr: 0x3B8, symBinAddr: 0x100003BC8, symSize: 0x5C }
  - { offsetInCU: 0x1974A, offset: 0x1974A, size: 0x8, addend: 0x0, symName: __ZNSt3__18functionIFddEED1Ev, symObjAddr: 0x414, symBinAddr: 0x100003C24, symSize: 0x2C }
  - { offsetInCU: 0x19776, offset: 0x19776, size: 0x8, addend: 0x0, symName: __ZN15NumericalScheme12run_timestepEv, symObjAddr: 0x440, symBinAddr: 0x100003C50, symSize: 0x13C }
  - { offsetInCU: 0x197E9, offset: 0x197E9, size: 0x8, addend: 0x0, symName: __ZN15NumericalSchemeD1Ev, symObjAddr: 0x57C, symBinAddr: 0x100003D8C, symSize: 0x2C }
  - { offsetInCU: 0x19815, offset: 0x19815, size: 0x8, addend: 0x0, symName: __ZN22Advection_Warming_BeamD1Ev, symObjAddr: 0x5A8, symBinAddr: 0x100003DB8, symSize: 0x2C }
  - { offsetInCU: 0x19840, offset: 0x19840, size: 0x8, addend: 0x0, symName: __Z18Run_Lax_Friedrichsv, symObjAddr: 0x5D4, symBinAddr: 0x100003DE4, symSize: 0x1E4 }
  - { offsetInCU: 0x19920, offset: 0x19920, size: 0x8, addend: 0x0, symName: __ZN24Advection_Lax_FriedrichsC1Ed, symObjAddr: 0x7B8, symBinAddr: 0x100003FC8, symSize: 0x34 }
  - { offsetInCU: 0x19958, offset: 0x19958, size: 0x8, addend: 0x0, symName: __ZNSt3__18functionIFdddEEaSEOS2_, symObjAddr: 0x7EC, symBinAddr: 0x100003FFC, symSize: 0x3C }
  - { offsetInCU: 0x1998F, offset: 0x1998F, size: 0x8, addend: 0x0, symName: __ZNSt3__18functionIFdddEED1Ev, symObjAddr: 0x828, symBinAddr: 0x100004038, symSize: 0x2C }
  - { offsetInCU: 0x199BB, offset: 0x199BB, size: 0x8, addend: 0x0, symName: __ZN24Advection_Lax_FriedrichsD1Ev, symObjAddr: 0x854, symBinAddr: 0x100004064, symSize: 0x2C }
  - { offsetInCU: 0x199E6, offset: 0x199E6, size: 0x8, addend: 0x0, symName: __Z16Run_Lax_Wendroffv, symObjAddr: 0x880, symBinAddr: 0x100004090, symSize: 0x1E4 }
  - { offsetInCU: 0x19AC6, offset: 0x19AC6, size: 0x8, addend: 0x0, symName: __ZN22Advection_Lax_WendroffC1Ed, symObjAddr: 0xA64, symBinAddr: 0x100004274, symSize: 0x34 }
  - { offsetInCU: 0x19AFE, offset: 0x19AFE, size: 0x8, addend: 0x0, symName: __ZN22Advection_Lax_WendroffD1Ev, symObjAddr: 0xA98, symBinAddr: 0x1000042A8, symSize: 0x2C }
  - { offsetInCU: 0x19B2A, offset: 0x19B2A, size: 0x8, addend: 0x0, symName: _main, symObjAddr: 0xAC4, symBinAddr: 0x1000042D4, symSize: 0x30 }
  - { offsetInCU: 0x19B44, offset: 0x19B44, size: 0x8, addend: 0x0, symName: '__ZZ17AdvectionSolutionNSt3__18functionIFddEEEdEN3$_0D2Ev', symObjAddr: 0xAF4, symBinAddr: 0x100004304, symSize: 0x2C }
  - { offsetInCU: 0x19B70, offset: 0x19B70, size: 0x8, addend: 0x0, symName: __ZN22Advection_Warming_BeamC2Ed, symObjAddr: 0xB20, symBinAddr: 0x100004330, symSize: 0x58 }
  - { offsetInCU: 0x19BA8, offset: 0x19BA8, size: 0x8, addend: 0x0, symName: __ZN13IterativeRuleC2Eii, symObjAddr: 0xB78, symBinAddr: 0x100004388, symSize: 0x3C }
  - { offsetInCU: 0x19BEE, offset: 0x19BEE, size: 0x8, addend: 0x0, symName: __ZN22Advection_Warming_Beam5applyERK11StencilViewdd, symObjAddr: 0xBB4, symBinAddr: 0x1000043C4, symSize: 0xE0 }
  - { offsetInCU: 0x19C76, offset: 0x19C76, size: 0x8, addend: 0x0, symName: __ZN22Advection_Warming_BeamD0Ev, symObjAddr: 0xC94, symBinAddr: 0x1000044A4, symSize: 0x30 }
  - { offsetInCU: 0x19CA2, offset: 0x19CA2, size: 0x8, addend: 0x0, symName: __ZN13IterativeRuleD1Ev, symObjAddr: 0xCC4, symBinAddr: 0x1000044D4, symSize: 0x14 }
  - { offsetInCU: 0x19CCC, offset: 0x19CCC, size: 0x8, addend: 0x0, symName: __ZN13IterativeRuleD0Ev, symObjAddr: 0xCD8, symBinAddr: 0x1000044E8, symSize: 0xC }
  - { offsetInCU: 0x19CF6, offset: 0x19CF6, size: 0x8, addend: 0x0, symName: __ZNK11StencilView12get_velocityEi, symObjAddr: 0xCE4, symBinAddr: 0x1000044F4, symSize: 0x6C }
  - { offsetInCU: 0x19D38, offset: 0x19D38, size: 0x8, addend: 0x0, symName: __ZNKSt3__16vectorIdNS_9allocatorIdEEEixB8ue170006Em, symObjAddr: 0xD50, symBinAddr: 0x100004560, symSize: 0x24 }
  - { offsetInCU: 0x19D6F, offset: 0x19D6F, size: 0x8, addend: 0x0, symName: __ZN15NumericalSchemeC2EiNSt3__18functionIFddEEER13IterativeRuleRNS0_12basic_stringIcNS0_11char_traitsIcEENS0_9allocatorIcEEEEdi, symObjAddr: 0xD74, symBinAddr: 0x100004584, symSize: 0x32C }
  - { offsetInCU: 0x19E3B, offset: 0x19E3B, size: 0x8, addend: 0x0, symName: __ZN9StateDataC1Ei, symObjAddr: 0x10A0, symBinAddr: 0x1000048B0, symSize: 0x34 }
  - { offsetInCU: 0x19E73, offset: 0x19E73, size: 0x8, addend: 0x0, symName: __ZNSt3__18functionIFdddEEC1B8ue170006Ev, symObjAddr: 0x10D4, symBinAddr: 0x1000048E4, symSize: 0x2C }
  - { offsetInCU: 0x19E9D, offset: 0x19E9D, size: 0x8, addend: 0x0, symName: __ZNSt3__14__fs10filesystem4pathC1B8ue170006INS_12basic_stringIcNS_11char_traitsIcEENS_9allocatorIcEEEEvEERKT_NS2_6formatE, symObjAddr: 0x1128, symBinAddr: 0x100004938, symSize: 0x3C }
  - { offsetInCU: 0x19EEC, offset: 0x19EEC, size: 0x8, addend: 0x0, symName: __ZNSt3__14__fs10filesystem4pathD1B8ue170006Ev, symObjAddr: 0x1164, symBinAddr: 0x100004974, symSize: 0x2C }
  - { offsetInCU: 0x19F16, offset: 0x19F16, size: 0x8, addend: 0x0, symName: __ZNSt3__14__fs10filesystem4pathC1B8ue170006EONS_12basic_stringIcNS_11char_traitsIcEENS_9allocatorIcEEEENS2_6formatE, symObjAddr: 0x1318, symBinAddr: 0x100004B28, symSize: 0x3C }
  - { offsetInCU: 0x19F5B, offset: 0x19F5B, size: 0x8, addend: 0x0, symName: __ZNKSt3__18functionIFddEEclEd, symObjAddr: 0x1354, symBinAddr: 0x100004B64, symSize: 0x2C }
  - { offsetInCU: 0x19F92, offset: 0x19F92, size: 0x8, addend: 0x0, symName: __ZN9StateData12set_velocityEid, symObjAddr: 0x1380, symBinAddr: 0x100004B90, symSize: 0x44 }
  - { offsetInCU: 0x19FD4, offset: 0x19FD4, size: 0x8, addend: 0x0, symName: __ZNK15NumericalScheme18log_init_conditionEv, symObjAddr: 0x13C4, symBinAddr: 0x100004BD4, symSize: 0x190 }
  - { offsetInCU: 0x1A01E, offset: 0x1A01E, size: 0x8, addend: 0x0, symName: __ZN9StateDataD1Ev, symObjAddr: 0x1554, symBinAddr: 0x100004D64, symSize: 0x2C }
  - { offsetInCU: 0x1A04A, offset: 0x1A04A, size: 0x8, addend: 0x0, symName: __ZN9StateDataC2Ei, symObjAddr: 0x1580, symBinAddr: 0x100004D90, symSize: 0x40 }
  - { offsetInCU: 0x1A082, offset: 0x1A082, size: 0x8, addend: 0x0, symName: __ZNSt3__16vectorIdNS_9allocatorIdEEEC1Em, symObjAddr: 0x15C0, symBinAddr: 0x100004DD0, symSize: 0x34 }
  - { offsetInCU: 0x1A0BD, offset: 0x1A0BD, size: 0x8, addend: 0x0, symName: __ZNSt3__16vectorIdNS_9allocatorIdEEEC2Em, symObjAddr: 0x15F4, symBinAddr: 0x100004E04, symSize: 0xD4 }
  - { offsetInCU: 0x1A119, offset: 0x1A119, size: 0x8, addend: 0x0, symName: __ZNSt3__117__compressed_pairIPdNS_9allocatorIdEEEC1B8ue170006IDnNS_18__default_init_tagEEEOT_OT0_, symObjAddr: 0x16C8, symBinAddr: 0x100004ED8, symSize: 0x3C }
  - { offsetInCU: 0x1A171, offset: 0x1A171, size: 0x8, addend: 0x0, symName: __ZNSt3__16vectorIdNS_9allocatorIdEEE16__destroy_vectorC1B8ue170006ERS3_, symObjAddr: 0x1744, symBinAddr: 0x100004F54, symSize: 0x34 }
  - { offsetInCU: 0x1A1AA, offset: 0x1A1AA, size: 0x8, addend: 0x0, symName: __ZNSt3__16vectorIdNS_9allocatorIdEEE11__vallocateB8ue170006Em, symObjAddr: 0x1778, symBinAddr: 0x100004F88, symSize: 0xAC }
  - { offsetInCU: 0x1A1EE, offset: 0x1A1EE, size: 0x8, addend: 0x0, symName: __ZNSt3__16vectorIdNS_9allocatorIdEEE18__construct_at_endEm, symObjAddr: 0x1824, symBinAddr: 0x100005034, symSize: 0xC8 }
  - { offsetInCU: 0x1A261, offset: 0x1A261, size: 0x8, addend: 0x0, symName: __ZNSt3__128__exception_guard_exceptionsINS_6vectorIdNS_9allocatorIdEEE16__destroy_vectorEE10__completeB8ue170006Ev, symObjAddr: 0x18EC, symBinAddr: 0x1000050FC, symSize: 0x1C }
  - { offsetInCU: 0x1A287, offset: 0x1A287, size: 0x8, addend: 0x0, symName: __ZNSt3__128__exception_guard_exceptionsINS_6vectorIdNS_9allocatorIdEEE16__destroy_vectorEED1B8ue170006Ev, symObjAddr: 0x1908, symBinAddr: 0x100005118, symSize: 0x2C }
  - { offsetInCU: 0x1A2B1, offset: 0x1A2B1, size: 0x8, addend: 0x0, symName: __ZNSt3__117__compressed_pairIPdNS_9allocatorIdEEEC2B8ue170006IDnNS_18__default_init_tagEEEOT_OT0_, symObjAddr: 0x1934, symBinAddr: 0x100005144, symSize: 0x40 }
  - { offsetInCU: 0x1A309, offset: 0x1A309, size: 0x8, addend: 0x0, symName: __ZNSt3__122__compressed_pair_elemIPdLi0ELb0EEC2B8ue170006IDnvEEOT_, symObjAddr: 0x1974, symBinAddr: 0x100005184, symSize: 0x1C }
  - { offsetInCU: 0x1A34B, offset: 0x1A34B, size: 0x8, addend: 0x0, symName: __ZNSt3__122__compressed_pair_elemINS_9allocatorIdEELi1ELb1EEC2B8ue170006ENS_18__default_init_tagE, symObjAddr: 0x1990, symBinAddr: 0x1000051A0, symSize: 0x2C }
  - { offsetInCU: 0x1A37F, offset: 0x1A37F, size: 0x8, addend: 0x0, symName: __ZNSt3__19allocatorIdEC2B8ue170006Ev, symObjAddr: 0x19BC, symBinAddr: 0x1000051CC, symSize: 0x2C }
  - { offsetInCU: 0x1A3A9, offset: 0x1A3A9, size: 0x8, addend: 0x0, symName: __ZNSt3__116__non_trivial_ifILb1ENS_9allocatorIdEEEC2B8ue170006Ev, symObjAddr: 0x19E8, symBinAddr: 0x1000051F8, symSize: 0x14 }
  - { offsetInCU: 0x1A3D3, offset: 0x1A3D3, size: 0x8, addend: 0x0, symName: __ZNSt3__128__exception_guard_exceptionsINS_6vectorIdNS_9allocatorIdEEE16__destroy_vectorEEC1B8ue170006ES5_, symObjAddr: 0x19FC, symBinAddr: 0x10000520C, symSize: 0x34 }
  - { offsetInCU: 0x1A40B, offset: 0x1A40B, size: 0x8, addend: 0x0, symName: __ZNSt3__128__exception_guard_exceptionsINS_6vectorIdNS_9allocatorIdEEE16__destroy_vectorEEC2B8ue170006ES5_, symObjAddr: 0x1A30, symBinAddr: 0x100005240, symSize: 0x24 }
  - { offsetInCU: 0x1A443, offset: 0x1A443, size: 0x8, addend: 0x0, symName: __ZNSt3__16vectorIdNS_9allocatorIdEEE16__destroy_vectorC2B8ue170006ERS3_, symObjAddr: 0x1A54, symBinAddr: 0x100005264, symSize: 0x20 }
  - { offsetInCU: 0x1A47C, offset: 0x1A47C, size: 0x8, addend: 0x0, symName: __ZNKSt3__16vectorIdNS_9allocatorIdEEE8max_sizeEv, symObjAddr: 0x1A74, symBinAddr: 0x100005284, symSize: 0x60 }
  - { offsetInCU: 0x1A4A4, offset: 0x1A4A4, size: 0x8, addend: 0x0, symName: __ZNKSt3__16vectorIdNS_9allocatorIdEEE20__throw_length_errorB8ue170006Ev, symObjAddr: 0x1AD4, symBinAddr: 0x1000052E4, symSize: 0x1C }
  - { offsetInCU: 0x1A4CA, offset: 0x1A4CA, size: 0x8, addend: 0x0, symName: __ZNSt3__16vectorIdNS_9allocatorIdEEE7__allocB8ue170006Ev, symObjAddr: 0x1B30, symBinAddr: 0x100005340, symSize: 0x28 }
  - { offsetInCU: 0x1A4F0, offset: 0x1A4F0, size: 0x8, addend: 0x0, symName: __ZNSt3__16vectorIdNS_9allocatorIdEEE9__end_capB8ue170006Ev, symObjAddr: 0x1B58, symBinAddr: 0x100005368, symSize: 0x28 }
  - { offsetInCU: 0x1A516, offset: 0x1A516, size: 0x8, addend: 0x0, symName: __ZNKSt3__16vectorIdNS_9allocatorIdEEE14__annotate_newB8ue170006Em, symObjAddr: 0x1B80, symBinAddr: 0x100005390, symSize: 0xAC }
  - { offsetInCU: 0x1A556, offset: 0x1A556, size: 0x8, addend: 0x0, symName: __ZNSt3__116allocator_traitsINS_9allocatorIdEEE8max_sizeB8ue170006IS2_vEEmRKS2_, symObjAddr: 0x1C58, symBinAddr: 0x100005468, symSize: 0x24 }
  - { offsetInCU: 0x1A584, offset: 0x1A584, size: 0x8, addend: 0x0, symName: __ZNKSt3__16vectorIdNS_9allocatorIdEEE7__allocB8ue170006Ev, symObjAddr: 0x1C7C, symBinAddr: 0x10000548C, symSize: 0x28 }
  - { offsetInCU: 0x1A5AA, offset: 0x1A5AA, size: 0x8, addend: 0x0, symName: __ZNSt3__114numeric_limitsIlE3maxB8ue170006Ev, symObjAddr: 0x1CA4, symBinAddr: 0x1000054B4, symSize: 0x14 }
  - { offsetInCU: 0x1A5CF, offset: 0x1A5CF, size: 0x8, addend: 0x0, symName: __ZNKSt3__16__lessIvvEclB8ue170006ImmEEbRKT_RKT0_, symObjAddr: 0x1D18, symBinAddr: 0x100005528, symSize: 0x34 }
  - { offsetInCU: 0x1A623, offset: 0x1A623, size: 0x8, addend: 0x0, symName: __ZNKSt3__19allocatorIdE8max_sizeB8ue170006Ev, symObjAddr: 0x1D4C, symBinAddr: 0x10000555C, symSize: 0x14 }
  - { offsetInCU: 0x1A649, offset: 0x1A649, size: 0x8, addend: 0x0, symName: __ZNKSt3__117__compressed_pairIPdNS_9allocatorIdEEE6secondB8ue170006Ev, symObjAddr: 0x1D60, symBinAddr: 0x100005570, symSize: 0x24 }
  - { offsetInCU: 0x1A66F, offset: 0x1A66F, size: 0x8, addend: 0x0, symName: __ZNKSt3__122__compressed_pair_elemINS_9allocatorIdEELi1ELb1EE5__getB8ue170006Ev, symObjAddr: 0x1D84, symBinAddr: 0x100005594, symSize: 0x14 }
  - { offsetInCU: 0x1A695, offset: 0x1A695, size: 0x8, addend: 0x0, symName: __ZNSt3__123__libcpp_numeric_limitsIlLb1EE3maxB8ue170006Ev, symObjAddr: 0x1D98, symBinAddr: 0x1000055A8, symSize: 0x8 }
  - { offsetInCU: 0x1A6A9, offset: 0x1A6A9, size: 0x8, addend: 0x0, symName: __ZNSt12length_errorC1B8ue170006EPKc, symObjAddr: 0x1E04, symBinAddr: 0x100005614, symSize: 0x34 }
  - { offsetInCU: 0x1A6E1, offset: 0x1A6E1, size: 0x8, addend: 0x0, symName: __ZNSt12length_errorC2B8ue170006EPKc, symObjAddr: 0x1E38, symBinAddr: 0x100005648, symSize: 0x4C }
  - { offsetInCU: 0x1A719, offset: 0x1A719, size: 0x8, addend: 0x0, symName: __ZNSt3__19allocatorIdE8allocateB8ue170006Em, symObjAddr: 0x1E84, symBinAddr: 0x100005694, symSize: 0x58 }
  - { offsetInCU: 0x1A74D, offset: 0x1A74D, size: 0x8, addend: 0x0, symName: __ZNSt3__117__compressed_pairIPdNS_9allocatorIdEEE6secondB8ue170006Ev, symObjAddr: 0x1FE0, symBinAddr: 0x1000057F0, symSize: 0x24 }
  - { offsetInCU: 0x1A773, offset: 0x1A773, size: 0x8, addend: 0x0, symName: __ZNSt3__122__compressed_pair_elemINS_9allocatorIdEELi1ELb1EE5__getB8ue170006Ev, symObjAddr: 0x2004, symBinAddr: 0x100005814, symSize: 0x14 }
  - { offsetInCU: 0x1A799, offset: 0x1A799, size: 0x8, addend: 0x0, symName: __ZNSt3__117__compressed_pairIPdNS_9allocatorIdEEE5firstB8ue170006Ev, symObjAddr: 0x2018, symBinAddr: 0x100005828, symSize: 0x24 }
  - { offsetInCU: 0x1A7BF, offset: 0x1A7BF, size: 0x8, addend: 0x0, symName: __ZNSt3__122__compressed_pair_elemIPdLi0ELb0EE5__getB8ue170006Ev, symObjAddr: 0x203C, symBinAddr: 0x10000584C, symSize: 0x14 }
  - { offsetInCU: 0x1A7E5, offset: 0x1A7E5, size: 0x8, addend: 0x0, symName: __ZNKSt3__16vectorIdNS_9allocatorIdEEE31__annotate_contiguous_containerB8ue170006EPKvS5_S5_S5_, symObjAddr: 0x2050, symBinAddr: 0x100005860, symSize: 0x20 }
  - { offsetInCU: 0x1A83B, offset: 0x1A83B, size: 0x8, addend: 0x0, symName: __ZNKSt3__16vectorIdNS_9allocatorIdEEE4dataB8ue170006Ev, symObjAddr: 0x2070, symBinAddr: 0x100005880, symSize: 0x28 }
  - { offsetInCU: 0x1A861, offset: 0x1A861, size: 0x8, addend: 0x0, symName: __ZNKSt3__16vectorIdNS_9allocatorIdEEE8capacityB8ue170006Ev, symObjAddr: 0x2098, symBinAddr: 0x1000058A8, symSize: 0x40 }
  - { offsetInCU: 0x1A887, offset: 0x1A887, size: 0x8, addend: 0x0, symName: __ZNKSt3__16vectorIdNS_9allocatorIdEEE9__end_capB8ue170006Ev, symObjAddr: 0x20EC, symBinAddr: 0x1000058FC, symSize: 0x28 }
  - { offsetInCU: 0x1A8AD, offset: 0x1A8AD, size: 0x8, addend: 0x0, symName: __ZNKSt3__117__compressed_pairIPdNS_9allocatorIdEEE5firstB8ue170006Ev, symObjAddr: 0x2114, symBinAddr: 0x100005924, symSize: 0x24 }
  - { offsetInCU: 0x1A8D3, offset: 0x1A8D3, size: 0x8, addend: 0x0, symName: __ZNKSt3__122__compressed_pair_elemIPdLi0ELb0EE5__getB8ue170006Ev, symObjAddr: 0x2138, symBinAddr: 0x100005948, symSize: 0x14 }
  - { offsetInCU: 0x1A915, offset: 0x1A915, size: 0x8, addend: 0x0, symName: __ZNSt3__16vectorIdNS_9allocatorIdEEE21_ConstructTransactionC1B8ue170006ERS3_m, symObjAddr: 0x214C, symBinAddr: 0x10000595C, symSize: 0x3C }
  - { offsetInCU: 0x1A95D, offset: 0x1A95D, size: 0x8, addend: 0x0, symName: __ZNSt3__116allocator_traitsINS_9allocatorIdEEE9constructB8ue170006IdJEvEEvRS2_PT_DpOT0_, symObjAddr: 0x2188, symBinAddr: 0x100005998, symSize: 0x2C }
  - { offsetInCU: 0x1A99F, offset: 0x1A99F, size: 0x8, addend: 0x0, symName: __ZNSt3__16vectorIdNS_9allocatorIdEEE21_ConstructTransactionD1B8ue170006Ev, symObjAddr: 0x21B4, symBinAddr: 0x1000059C4, symSize: 0x2C }
  - { offsetInCU: 0x1A9C9, offset: 0x1A9C9, size: 0x8, addend: 0x0, symName: __ZNSt3__16vectorIdNS_9allocatorIdEEE21_ConstructTransactionC2B8ue170006ERS3_m, symObjAddr: 0x21E0, symBinAddr: 0x1000059F0, symSize: 0x44 }
  - { offsetInCU: 0x1AA11, offset: 0x1AA11, size: 0x8, addend: 0x0, symName: __ZNSt3__19allocatorIdE9constructB8ue170006IdJEEEvPT_DpOT0_, symObjAddr: 0x2224, symBinAddr: 0x100005A34, symSize: 0x20 }
  - { offsetInCU: 0x1AA53, offset: 0x1AA53, size: 0x8, addend: 0x0, symName: __ZNSt3__16vectorIdNS_9allocatorIdEEE21_ConstructTransactionD2B8ue170006Ev, symObjAddr: 0x2244, symBinAddr: 0x100005A54, symSize: 0x20 }
  - { offsetInCU: 0x1AA7D, offset: 0x1AA7D, size: 0x8, addend: 0x0, symName: __ZNSt3__128__exception_guard_exceptionsINS_6vectorIdNS_9allocatorIdEEE16__destroy_vectorEED2B8ue170006Ev, symObjAddr: 0x2264, symBinAddr: 0x100005A74, symSize: 0x50 }
  - { offsetInCU: 0x1AAA7, offset: 0x1AAA7, size: 0x8, addend: 0x0, symName: __ZNSt3__16vectorIdNS_9allocatorIdEEE16__destroy_vectorclB8ue170006Ev, symObjAddr: 0x22B4, symBinAddr: 0x100005AC4, symSize: 0x90 }
  - { offsetInCU: 0x1AACD, offset: 0x1AACD, size: 0x8, addend: 0x0, symName: __ZNSt3__16vectorIdNS_9allocatorIdEEE7__clearB8ue170006Ev, symObjAddr: 0x2344, symBinAddr: 0x100005B54, symSize: 0x28 }
  - { offsetInCU: 0x1AAF3, offset: 0x1AAF3, size: 0x8, addend: 0x0, symName: __ZNKSt3__16vectorIdNS_9allocatorIdEEE17__annotate_deleteB8ue170006Ev, symObjAddr: 0x236C, symBinAddr: 0x100005B7C, symSize: 0xB8 }
  - { offsetInCU: 0x1AB19, offset: 0x1AB19, size: 0x8, addend: 0x0, symName: __ZNSt3__116allocator_traitsINS_9allocatorIdEEE10deallocateB8ue170006ERS2_Pdm, symObjAddr: 0x2424, symBinAddr: 0x100005C34, symSize: 0x34 }
  - { offsetInCU: 0x1AB5B, offset: 0x1AB5B, size: 0x8, addend: 0x0, symName: __ZNSt3__16vectorIdNS_9allocatorIdEEE22__base_destruct_at_endB8ue170006EPd, symObjAddr: 0x2458, symBinAddr: 0x100005C68, symSize: 0x8C }
  - { offsetInCU: 0x1AB9F, offset: 0x1AB9F, size: 0x8, addend: 0x0, symName: __ZNSt3__116allocator_traitsINS_9allocatorIdEEE7destroyB8ue170006IdvEEvRS2_PT_, symObjAddr: 0x24E4, symBinAddr: 0x100005CF4, symSize: 0x2C }
  - { offsetInCU: 0x1ABDC, offset: 0x1ABDC, size: 0x8, addend: 0x0, symName: __ZNSt3__19allocatorIdE7destroyB8ue170006EPd, symObjAddr: 0x2510, symBinAddr: 0x100005D20, symSize: 0x14 }
  - { offsetInCU: 0x1AC10, offset: 0x1AC10, size: 0x8, addend: 0x0, symName: __ZNKSt3__16vectorIdNS_9allocatorIdEEE4sizeB8ue170006Ev, symObjAddr: 0x2524, symBinAddr: 0x100005D34, symSize: 0x28 }
  - { offsetInCU: 0x1AC36, offset: 0x1AC36, size: 0x8, addend: 0x0, symName: __ZNSt3__19allocatorIdE10deallocateB8ue170006EPdm, symObjAddr: 0x254C, symBinAddr: 0x100005D5C, symSize: 0x40 }
  - { offsetInCU: 0x1AC78, offset: 0x1AC78, size: 0x8, addend: 0x0, symName: __ZNSt3__18functionIFdddEEC2B8ue170006Ev, symObjAddr: 0x2694, symBinAddr: 0x100005EA4, symSize: 0x2C }
  - { offsetInCU: 0x1ACA2, offset: 0x1ACA2, size: 0x8, addend: 0x0, symName: __ZNSt3__110__function12__value_funcIFdddEEC1B8ue170006Ev, symObjAddr: 0x26C0, symBinAddr: 0x100005ED0, symSize: 0x2C }
  - { offsetInCU: 0x1ACCC, offset: 0x1ACCC, size: 0x8, addend: 0x0, symName: __ZNSt3__110__function12__value_funcIFdddEEC2B8ue170006Ev, symObjAddr: 0x26EC, symBinAddr: 0x100005EFC, symSize: 0x18 }
  - { offsetInCU: 0x1ACF6, offset: 0x1ACF6, size: 0x8, addend: 0x0, symName: __ZNSt3__14__fs10filesystem4pathC2B8ue170006INS_12basic_stringIcNS_11char_traitsIcEENS_9allocatorIcEEEEvEERKT_NS2_6formatE, symObjAddr: 0x2704, symBinAddr: 0x100005F14, symSize: 0x68 }
  - { offsetInCU: 0x1AD45, offset: 0x1AD45, size: 0x8, addend: 0x0, symName: __ZNSt3__112basic_stringIcNS_11char_traitsIcEENS_9allocatorIcEEEC1B8ue170006Ev, symObjAddr: 0x276C, symBinAddr: 0x100005F7C, symSize: 0x2C }
  - { offsetInCU: 0x1AD75, offset: 0x1AD75, size: 0x8, addend: 0x0, symName: __ZNSt3__14__fs10filesystem8_PathCVTIcE15__append_sourceB8ue170006INS_12basic_stringIcNS_11char_traitsIcEENS_9allocatorIcEEEEEEvRSA_RKT_, symObjAddr: 0x2798, symBinAddr: 0x100005FA8, symSize: 0x4C }
  - { offsetInCU: 0x1ADB1, offset: 0x1ADB1, size: 0x8, addend: 0x0, symName: __ZNSt3__112basic_stringIcNS_11char_traitsIcEENS_9allocatorIcEEEC2B8ue170006Ev, symObjAddr: 0x27E4, symBinAddr: 0x100005FF4, symSize: 0x48 }
  - { offsetInCU: 0x1ADDB, offset: 0x1ADDB, size: 0x8, addend: 0x0, symName: __ZNSt3__117__compressed_pairINS_12basic_stringIcNS_11char_traitsIcEENS_9allocatorIcEEE5__repES5_EC1B8ue170006INS_18__default_init_tagESA_EEOT_OT0_, symObjAddr: 0x282C, symBinAddr: 0x10000603C, symSize: 0x3C }
  - { offsetInCU: 0x1AE33, offset: 0x1AE33, size: 0x8, addend: 0x0, symName: __ZNSt3__112basic_stringIcNS_11char_traitsIcEENS_9allocatorIcEEE14__default_initB8ue170006Ev, symObjAddr: 0x2868, symBinAddr: 0x100006078, symSize: 0x40 }
  - { offsetInCU: 0x1AE59, offset: 0x1AE59, size: 0x8, addend: 0x0, symName: __ZNSt3__117__compressed_pairINS_12basic_stringIcNS_11char_traitsIcEENS_9allocatorIcEEE5__repES5_EC2B8ue170006INS_18__default_init_tagESA_EEOT_OT0_, symObjAddr: 0x28A8, symBinAddr: 0x1000060B8, symSize: 0x3C }
  - { offsetInCU: 0x1AEB1, offset: 0x1AEB1, size: 0x8, addend: 0x0, symName: __ZNSt3__122__compressed_pair_elemINS_12basic_stringIcNS_11char_traitsIcEENS_9allocatorIcEEE5__repELi0ELb0EEC2B8ue170006ENS_18__default_init_tagE, symObjAddr: 0x28E4, symBinAddr: 0x1000060F4, symSize: 0x14 }
  - { offsetInCU: 0x1AEE5, offset: 0x1AEE5, size: 0x8, addend: 0x0, symName: __ZNSt3__122__compressed_pair_elemINS_9allocatorIcEELi1ELb1EEC2B8ue170006ENS_18__default_init_tagE, symObjAddr: 0x28F8, symBinAddr: 0x100006108, symSize: 0x2C }
  - { offsetInCU: 0x1AF19, offset: 0x1AF19, size: 0x8, addend: 0x0, symName: __ZNSt3__19allocatorIcEC2B8ue170006Ev, symObjAddr: 0x2924, symBinAddr: 0x100006134, symSize: 0x2C }
  - { offsetInCU: 0x1AF43, offset: 0x1AF43, size: 0x8, addend: 0x0, symName: __ZNSt3__116__non_trivial_ifILb1ENS_9allocatorIcEEEC2B8ue170006Ev, symObjAddr: 0x2950, symBinAddr: 0x100006160, symSize: 0x14 }
  - { offsetInCU: 0x1AF6D, offset: 0x1AF6D, size: 0x8, addend: 0x0, symName: __ZNSt3__117__compressed_pairINS_12basic_stringIcNS_11char_traitsIcEENS_9allocatorIcEEE5__repES5_E5firstB8ue170006Ev, symObjAddr: 0x2964, symBinAddr: 0x100006174, symSize: 0x24 }
  - { offsetInCU: 0x1AF93, offset: 0x1AF93, size: 0x8, addend: 0x0, symName: __ZNSt3__122__compressed_pair_elemINS_12basic_stringIcNS_11char_traitsIcEENS_9allocatorIcEEE5__repELi0ELb0EE5__getB8ue170006Ev, symObjAddr: 0x2988, symBinAddr: 0x100006198, symSize: 0x14 }
  - { offsetInCU: 0x1AFB9, offset: 0x1AFB9, size: 0x8, addend: 0x0, symName: __ZNSt3__14__fs10filesystem8_PathCVTIcE14__append_rangeB8ue170006IPKcEENS_9enable_ifIXsr31__has_forward_iterator_categoryIT_EE5valueEvE4typeERNS_12basic_stringIcNS_11char_traitsIcEENS_9allocatorIcEEEES8_S8_, symObjAddr: 0x299C, symBinAddr: 0x1000061AC, symSize: 0x34 }
  - { offsetInCU: 0x1B00F, offset: 0x1B00F, size: 0x8, addend: 0x0, symName: __ZNSt3__14__fs10filesystem20__is_pathable_stringINS_12basic_stringIcNS_11char_traitsIcEENS_9allocatorIcEEEEvE13__range_beginB8ue170006ERKS8_, symObjAddr: 0x29D0, symBinAddr: 0x1000061E0, symSize: 0x24 }
  - { offsetInCU: 0x1B032, offset: 0x1B032, size: 0x8, addend: 0x0, symName: __ZNSt3__14__fs10filesystem20__is_pathable_stringINS_12basic_stringIcNS_11char_traitsIcEENS_9allocatorIcEEEEvE11__range_endB8ue170006ERKS8_, symObjAddr: 0x29F4, symBinAddr: 0x100006204, symSize: 0x3C }
  - { offsetInCU: 0x1B055, offset: 0x1B055, size: 0x8, addend: 0x0, symName: __ZNSt3__112basic_stringIcNS_11char_traitsIcEENS_9allocatorIcEEE6appendB8ue170006IPKcLi0EEERS5_T_SA_, symObjAddr: 0x2A30, symBinAddr: 0x100006240, symSize: 0x1E4 }
  - { offsetInCU: 0x1B10A, offset: 0x1B10A, size: 0x8, addend: 0x0, symName: __ZNKSt3__112basic_stringIcNS_11char_traitsIcEENS_9allocatorIcEEE4sizeB8ue170006Ev, symObjAddr: 0x2C14, symBinAddr: 0x100006424, symSize: 0x54 }
  - { offsetInCU: 0x1B130, offset: 0x1B130, size: 0x8, addend: 0x0, symName: __ZNKSt3__112basic_stringIcNS_11char_traitsIcEENS_9allocatorIcEEE8capacityB8ue170006Ev, symObjAddr: 0x2C68, symBinAddr: 0x100006478, symSize: 0x54 }
  - { offsetInCU: 0x1B156, offset: 0x1B156, size: 0x8, addend: 0x0, symName: __ZNKSt3__112basic_stringIcNS_11char_traitsIcEENS_9allocatorIcEEE15__addr_in_rangeB8ue170006IcEEbRKT_, symObjAddr: 0x2CE8, symBinAddr: 0x1000064F8, symSize: 0x6C }
  - { offsetInCU: 0x1B194, offset: 0x1B194, size: 0x8, addend: 0x0, symName: __ZNSt3__112basic_stringIcNS_11char_traitsIcEENS_9allocatorIcEEE25__grow_by_without_replaceB8ue170006Emmmmmm, symObjAddr: 0x2D54, symBinAddr: 0x100006564, symSize: 0x74 }
  - { offsetInCU: 0x1B216, offset: 0x1B216, size: 0x8, addend: 0x0, symName: __ZNSt3__112basic_stringIcNS_11char_traitsIcEENS_9allocatorIcEEE13__get_pointerB8ue170006Ev, symObjAddr: 0x2DC8, symBinAddr: 0x1000065D8, symSize: 0x54 }
  - { offsetInCU: 0x1B23C, offset: 0x1B23C, size: 0x8, addend: 0x0, symName: __ZNSt3__111char_traitsIcE6assignB8ue170006ERcRKc, symObjAddr: 0x2E1C, symBinAddr: 0x10000662C, symSize: 0x24 }
  - { offsetInCU: 0x1B26D, offset: 0x1B26D, size: 0x8, addend: 0x0, symName: __ZNSt3__112basic_stringIcNS_11char_traitsIcEENS_9allocatorIcEEE10__set_sizeB8ue170006Em, symObjAddr: 0x2E40, symBinAddr: 0x100006650, symSize: 0x54 }
  - { offsetInCU: 0x1B2A2, offset: 0x1B2A2, size: 0x8, addend: 0x0, symName: __ZNSt3__112basic_stringIcNS_11char_traitsIcEENS_9allocatorIcEEE7__allocB8ue170006Ev, symObjAddr: 0x2E94, symBinAddr: 0x1000066A4, symSize: 0x24 }
  - { offsetInCU: 0x1B2C8, offset: 0x1B2C8, size: 0x8, addend: 0x0, symName: __ZNSt3__112basic_stringIcNS_11char_traitsIcEENS_9allocatorIcEEEC1B8ue170006IPKcLi0EEET_S9_RKS4_, symObjAddr: 0x2EB8, symBinAddr: 0x1000066C8, symSize: 0x44 }
  - { offsetInCU: 0x1B32E, offset: 0x1B32E, size: 0x8, addend: 0x0, symName: __ZNKSt3__112basic_stringIcNS_11char_traitsIcEENS_9allocatorIcEEE4dataB8ue170006Ev, symObjAddr: 0x2EFC, symBinAddr: 0x10000670C, symSize: 0x28 }
  - { offsetInCU: 0x1B354, offset: 0x1B354, size: 0x8, addend: 0x0, symName: __ZNKSt3__112basic_stringIcNS_11char_traitsIcEENS_9allocatorIcEEE9__is_longB8ue170006Ev, symObjAddr: 0x2F24, symBinAddr: 0x100006734, symSize: 0x38 }
  - { offsetInCU: 0x1B37A, offset: 0x1B37A, size: 0x8, addend: 0x0, symName: __ZNKSt3__112basic_stringIcNS_11char_traitsIcEENS_9allocatorIcEEE15__get_long_sizeB8ue170006Ev, symObjAddr: 0x2F5C, symBinAddr: 0x10000676C, symSize: 0x28 }
  - { offsetInCU: 0x1B3A0, offset: 0x1B3A0, size: 0x8, addend: 0x0, symName: __ZNKSt3__112basic_stringIcNS_11char_traitsIcEENS_9allocatorIcEEE16__get_short_sizeB8ue170006Ev, symObjAddr: 0x2F84, symBinAddr: 0x100006794, symSize: 0x34 }
  - { offsetInCU: 0x1B3C6, offset: 0x1B3C6, size: 0x8, addend: 0x0, symName: __ZNKSt3__117__compressed_pairINS_12basic_stringIcNS_11char_traitsIcEENS_9allocatorIcEEE5__repES5_E5firstB8ue170006Ev, symObjAddr: 0x2FB8, symBinAddr: 0x1000067C8, symSize: 0x24 }
  - { offsetInCU: 0x1B3EC, offset: 0x1B3EC, size: 0x8, addend: 0x0, symName: __ZNKSt3__122__compressed_pair_elemINS_12basic_stringIcNS_11char_traitsIcEENS_9allocatorIcEEE5__repELi0ELb0EE5__getB8ue170006Ev, symObjAddr: 0x2FDC, symBinAddr: 0x1000067EC, symSize: 0x14 }
  - { offsetInCU: 0x1B412, offset: 0x1B412, size: 0x8, addend: 0x0, symName: __ZNKSt3__112basic_stringIcNS_11char_traitsIcEENS_9allocatorIcEEE14__get_long_capB8ue170006Ev, symObjAddr: 0x2FF0, symBinAddr: 0x100006800, symSize: 0x30 }
  - { offsetInCU: 0x1B443, offset: 0x1B443, size: 0x8, addend: 0x0, symName: __ZNKSt3__16__lessIvvEclB8ue170006IPKcS4_EEbRKT_RKT0_, symObjAddr: 0x30A8, symBinAddr: 0x1000068B8, symSize: 0x34 }
  - { offsetInCU: 0x1B497, offset: 0x1B497, size: 0x8, addend: 0x0, symName: __ZNSt3__112basic_stringIcNS_11char_traitsIcEENS_9allocatorIcEEE15__set_long_sizeB8ue170006Em, symObjAddr: 0x30DC, symBinAddr: 0x1000068EC, symSize: 0x38 }
  - { offsetInCU: 0x1B4CC, offset: 0x1B4CC, size: 0x8, addend: 0x0, symName: __ZNSt3__112basic_stringIcNS_11char_traitsIcEENS_9allocatorIcEEE18__get_long_pointerB8ue170006Ev, symObjAddr: 0x3114, symBinAddr: 0x100006924, symSize: 0x28 }
  - { offsetInCU: 0x1B4F2, offset: 0x1B4F2, size: 0x8, addend: 0x0, symName: __ZNSt3__112basic_stringIcNS_11char_traitsIcEENS_9allocatorIcEEE19__get_short_pointerB8ue170006Ev, symObjAddr: 0x313C, symBinAddr: 0x10000694C, symSize: 0x28 }
  - { offsetInCU: 0x1B518, offset: 0x1B518, size: 0x8, addend: 0x0, symName: __ZNSt3__114pointer_traitsIPcE10pointer_toB8ue170006ERc, symObjAddr: 0x3164, symBinAddr: 0x100006974, symSize: 0x14 }
  - { offsetInCU: 0x1B53B, offset: 0x1B53B, size: 0x8, addend: 0x0, symName: __ZNSt3__112basic_stringIcNS_11char_traitsIcEENS_9allocatorIcEEE16__set_short_sizeB8ue170006Em, symObjAddr: 0x3178, symBinAddr: 0x100006988, symSize: 0x78 }
  - { offsetInCU: 0x1B570, offset: 0x1B570, size: 0x8, addend: 0x0, symName: __ZNSt3__117__compressed_pairINS_12basic_stringIcNS_11char_traitsIcEENS_9allocatorIcEEE5__repES5_E6secondB8ue170006Ev, symObjAddr: 0x31F0, symBinAddr: 0x100006A00, symSize: 0x24 }
  - { offsetInCU: 0x1B596, offset: 0x1B596, size: 0x8, addend: 0x0, symName: __ZNSt3__122__compressed_pair_elemINS_9allocatorIcEELi1ELb1EE5__getB8ue170006Ev, symObjAddr: 0x3214, symBinAddr: 0x100006A24, symSize: 0x14 }
  - { offsetInCU: 0x1B5BC, offset: 0x1B5BC, size: 0x8, addend: 0x0, symName: __ZNSt3__112basic_stringIcNS_11char_traitsIcEENS_9allocatorIcEEEC2B8ue170006IPKcLi0EEET_S9_RKS4_, symObjAddr: 0x3228, symBinAddr: 0x100006A38, symSize: 0x50 }
  - { offsetInCU: 0x1B622, offset: 0x1B622, size: 0x8, addend: 0x0, symName: __ZNSt3__117__compressed_pairINS_12basic_stringIcNS_11char_traitsIcEENS_9allocatorIcEEE5__repES5_EC1B8ue170006INS_18__default_init_tagERKS5_EEOT_OT0_, symObjAddr: 0x3278, symBinAddr: 0x100006A88, symSize: 0x3C }
  - { offsetInCU: 0x1B67A, offset: 0x1B67A, size: 0x8, addend: 0x0, symName: __ZNSt3__112basic_stringIcNS_11char_traitsIcEENS_9allocatorIcEEE6__initIPKcLi0EEEvT_S9_, symObjAddr: 0x32B4, symBinAddr: 0x100006AC4, symSize: 0x54 }
  - { offsetInCU: 0x1B6DE, offset: 0x1B6DE, size: 0x8, addend: 0x0, symName: __ZNSt3__117__compressed_pairINS_12basic_stringIcNS_11char_traitsIcEENS_9allocatorIcEEE5__repES5_EC2B8ue170006INS_18__default_init_tagERKS5_EEOT_OT0_, symObjAddr: 0x3308, symBinAddr: 0x100006B18, symSize: 0x40 }
  - { offsetInCU: 0x1B736, offset: 0x1B736, size: 0x8, addend: 0x0, symName: __ZNSt3__122__compressed_pair_elemINS_9allocatorIcEELi1ELb1EEC2B8ue170006IRKS2_vEEOT_, symObjAddr: 0x3348, symBinAddr: 0x100006B58, symSize: 0x18 }
  - { offsetInCU: 0x1B778, offset: 0x1B778, size: 0x8, addend: 0x0, symName: __ZNSt3__112basic_stringIcNS_11char_traitsIcEENS_9allocatorIcEEE16__init_with_sizeB8ue170006IPKcS8_EEvT_T0_m, symObjAddr: 0x3360, symBinAddr: 0x100006B70, symSize: 0x144 }
  - { offsetInCU: 0x1B80C, offset: 0x1B80C, size: 0x8, addend: 0x0, symName: __ZNKSt3__112basic_stringIcNS_11char_traitsIcEENS_9allocatorIcEEE8max_sizeB8ue170006Ev, symObjAddr: 0x34A4, symBinAddr: 0x100006CB4, symSize: 0xAC }
  - { offsetInCU: 0x1B85F, offset: 0x1B85F, size: 0x8, addend: 0x0, symName: __ZNKSt3__112basic_stringIcNS_11char_traitsIcEENS_9allocatorIcEEE20__throw_length_errorB8ue170006Ev, symObjAddr: 0x3550, symBinAddr: 0x100006D60, symSize: 0x1C }
  - { offsetInCU: 0x1B885, offset: 0x1B885, size: 0x8, addend: 0x0, symName: __ZNSt3__112basic_stringIcNS_11char_traitsIcEENS_9allocatorIcEEE13__fits_in_ssoB8ue170006Em, symObjAddr: 0x356C, symBinAddr: 0x100006D7C, symSize: 0x20 }
  - { offsetInCU: 0x1B8A9, offset: 0x1B8A9, size: 0x8, addend: 0x0, symName: __ZNSt3__112basic_stringIcNS_11char_traitsIcEENS_9allocatorIcEEE11__recommendB8ue170006Em, symObjAddr: 0x35CC, symBinAddr: 0x100006DDC, symSize: 0x84 }
  - { offsetInCU: 0x1B8DC, offset: 0x1B8DC, size: 0x8, addend: 0x0, symName: __ZNSt3__112basic_stringIcNS_11char_traitsIcEENS_9allocatorIcEEE16__begin_lifetimeB8ue170006EPcm, symObjAddr: 0x3650, symBinAddr: 0x100006E60, symSize: 0x14 }
  - { offsetInCU: 0x1B90F, offset: 0x1B90F, size: 0x8, addend: 0x0, symName: __ZNSt3__112basic_stringIcNS_11char_traitsIcEENS_9allocatorIcEEE18__set_long_pointerB8ue170006EPc, symObjAddr: 0x3664, symBinAddr: 0x100006E74, symSize: 0x38 }
  - { offsetInCU: 0x1B944, offset: 0x1B944, size: 0x8, addend: 0x0, symName: __ZNSt3__112basic_stringIcNS_11char_traitsIcEENS_9allocatorIcEEE14__set_long_capB8ue170006Em, symObjAddr: 0x369C, symBinAddr: 0x100006EAC, symSize: 0x70 }
  - { offsetInCU: 0x1B984, offset: 0x1B984, size: 0x8, addend: 0x0, symName: __ZNSt3__116allocator_traitsINS_9allocatorIcEEE8max_sizeB8ue170006IS2_vEEmRKS2_, symObjAddr: 0x370C, symBinAddr: 0x100006F1C, symSize: 0x24 }
  - { offsetInCU: 0x1B9B2, offset: 0x1B9B2, size: 0x8, addend: 0x0, symName: __ZNKSt3__112basic_stringIcNS_11char_traitsIcEENS_9allocatorIcEEE7__allocB8ue170006Ev, symObjAddr: 0x3730, symBinAddr: 0x100006F40, symSize: 0x24 }
  - { offsetInCU: 0x1B9D8, offset: 0x1B9D8, size: 0x8, addend: 0x0, symName: __ZNSt3__114numeric_limitsImE3maxB8ue170006Ev, symObjAddr: 0x3754, symBinAddr: 0x100006F64, symSize: 0x14 }
  - { offsetInCU: 0x1B9EC, offset: 0x1B9EC, size: 0x8, addend: 0x0, symName: __ZNKSt3__19allocatorIcE8max_sizeB8ue170006Ev, symObjAddr: 0x3768, symBinAddr: 0x100006F78, symSize: 0x14 }
  - { offsetInCU: 0x1BA12, offset: 0x1BA12, size: 0x8, addend: 0x0, symName: __ZNKSt3__117__compressed_pairINS_12basic_stringIcNS_11char_traitsIcEENS_9allocatorIcEEE5__repES5_E6secondB8ue170006Ev, symObjAddr: 0x377C, symBinAddr: 0x100006F8C, symSize: 0x24 }
  - { offsetInCU: 0x1BA38, offset: 0x1BA38, size: 0x8, addend: 0x0, symName: __ZNKSt3__122__compressed_pair_elemINS_9allocatorIcEELi1ELb1EE5__getB8ue170006Ev, symObjAddr: 0x37A0, symBinAddr: 0x100006FB0, symSize: 0x14 }
  - { offsetInCU: 0x1BA5E, offset: 0x1BA5E, size: 0x8, addend: 0x0, symName: __ZNSt3__123__libcpp_numeric_limitsImLb1EE3maxB8ue170006Ev, symObjAddr: 0x37B4, symBinAddr: 0x100006FC4, symSize: 0x8 }
  - { offsetInCU: 0x1BA72, offset: 0x1BA72, size: 0x8, addend: 0x0, symName: __ZNSt3__19allocatorIcE8allocateB8ue170006Em, symObjAddr: 0x37BC, symBinAddr: 0x100006FCC, symSize: 0x58 }
  - { offsetInCU: 0x1BAA6, offset: 0x1BAA6, size: 0x8, addend: 0x0, symName: __ZNSt3__112basic_stringIcNS_11char_traitsIcEENS_9allocatorIcEEE10__align_itB8ue170006ILm16EEEmm, symObjAddr: 0x3814, symBinAddr: 0x100007024, symSize: 0x1C }
  - { offsetInCU: 0x1BAD4, offset: 0x1BAD4, size: 0x8, addend: 0x0, symName: __ZNKSt3__112basic_stringIcNS_11char_traitsIcEENS_9allocatorIcEEE13__get_pointerB8ue170006Ev, symObjAddr: 0x3844, symBinAddr: 0x100007054, symSize: 0x54 }
  - { offsetInCU: 0x1BAFA, offset: 0x1BAFA, size: 0x8, addend: 0x0, symName: __ZNKSt3__112basic_stringIcNS_11char_traitsIcEENS_9allocatorIcEEE18__get_long_pointerB8ue170006Ev, symObjAddr: 0x3898, symBinAddr: 0x1000070A8, symSize: 0x28 }
  - { offsetInCU: 0x1BB20, offset: 0x1BB20, size: 0x8, addend: 0x0, symName: __ZNKSt3__112basic_stringIcNS_11char_traitsIcEENS_9allocatorIcEEE19__get_short_pointerB8ue170006Ev, symObjAddr: 0x38C0, symBinAddr: 0x1000070D0, symSize: 0x28 }
  - { offsetInCU: 0x1BB46, offset: 0x1BB46, size: 0x8, addend: 0x0, symName: __ZNSt3__114pointer_traitsIPKcE10pointer_toB8ue170006ERS1_, symObjAddr: 0x38E8, symBinAddr: 0x1000070F8, symSize: 0x14 }
  - { offsetInCU: 0x1BB69, offset: 0x1BB69, size: 0x8, addend: 0x0, symName: __ZNKSt3__112basic_stringIcNS_11char_traitsIcEENS_9allocatorIcEEE6lengthB8ue170006Ev, symObjAddr: 0x38FC, symBinAddr: 0x10000710C, symSize: 0x24 }
  - { offsetInCU: 0x1BB8F, offset: 0x1BB8F, size: 0x8, addend: 0x0, symName: __ZNSt3__14__fs10filesystem4pathD2B8ue170006Ev, symObjAddr: 0x3920, symBinAddr: 0x100007130, symSize: 0x2C }
  - { offsetInCU: 0x1BBB9, offset: 0x1BBB9, size: 0x8, addend: 0x0, symName: __ZNSt3__112basic_stringIcNS_11char_traitsIcEENS_9allocatorIcEEEC1B8ue170006EOS5_, symObjAddr: 0x394C, symBinAddr: 0x10000715C, symSize: 0x34 }
  - { offsetInCU: 0x1BBF2, offset: 0x1BBF2, size: 0x8, addend: 0x0, symName: __ZNSt3__112basic_stringIcNS_11char_traitsIcEENS_9allocatorIcEEEC2B8ue170006EOS5_, symObjAddr: 0x3980, symBinAddr: 0x100007190, symSize: 0x48 }
  - { offsetInCU: 0x1BC2B, offset: 0x1BC2B, size: 0x8, addend: 0x0, symName: __ZNSt3__111char_traitsIcE6lengthB8ue170006EPKc, symObjAddr: 0x39C8, symBinAddr: 0x1000071D8, symSize: 0x34 }
  - { offsetInCU: 0x1BC4E, offset: 0x1BC4E, size: 0x8, addend: 0x0, symName: __ZNSt3__116allocator_traitsINS_9allocatorIcEEE37select_on_container_copy_constructionB8ue170006IS2_vvEES2_RKS2_, symObjAddr: 0x39FC, symBinAddr: 0x10000720C, symSize: 0x10 }
  - { offsetInCU: 0x1BC7D, offset: 0x1BC7D, size: 0x8, addend: 0x0, symName: __ZNKSt3__112basic_stringIcNS_11char_traitsIcEENS_9allocatorIcEEE13get_allocatorB8ue170006Ev, symObjAddr: 0x3A0C, symBinAddr: 0x10000721C, symSize: 0x24 }
  - { offsetInCU: 0x1BCA3, offset: 0x1BCA3, size: 0x8, addend: 0x0, symName: __ZNSt3__112basic_stringIcNS_11char_traitsIcEENS_9allocatorIcEEEC1B8ue170006ENS_24__uninitialized_size_tagEmRKS4_, symObjAddr: 0x3A30, symBinAddr: 0x100007240, symSize: 0x3C }
  - { offsetInCU: 0x1BCF7, offset: 0x1BCF7, size: 0x8, addend: 0x0, symName: __ZNSt3__111char_traitsIcE4copyB8ue170006EPcPKcm, symObjAddr: 0x3A80, symBinAddr: 0x100007290, symSize: 0x40 }
  - { offsetInCU: 0x1BD36, offset: 0x1BD36, size: 0x8, addend: 0x0, symName: __ZNSt3__111char_traitsIcE6assignB8ue170006EPcmc, symObjAddr: 0x3AC0, symBinAddr: 0x1000072D0, symSize: 0x44 }
  - { offsetInCU: 0x1BD75, offset: 0x1BD75, size: 0x8, addend: 0x0, symName: __ZNSt3__112basic_stringIcNS_11char_traitsIcEENS_9allocatorIcEEEC2B8ue170006ENS_24__uninitialized_size_tagEmRKS4_, symObjAddr: 0x3B28, symBinAddr: 0x100007338, symSize: 0x110 }
  - { offsetInCU: 0x1BDF6, offset: 0x1BDF6, size: 0x8, addend: 0x0, symName: __ZNSt3__116allocator_traitsINS_9allocatorIcEEE8allocateB8ue170006ERS2_m, symObjAddr: 0x3C38, symBinAddr: 0x100007448, symSize: 0x2C }
  - { offsetInCU: 0x1BE51, offset: 0x1BE51, size: 0x8, addend: 0x0, symName: __ZNKSt3__114__copy_trivialclB8ue170006IKccLi0EEENS_4pairIPT_PT0_EES5_S5_S7_, symObjAddr: 0x3E84, symBinAddr: 0x100007694, symSize: 0x48 }
  - { offsetInCU: 0x1BEDC, offset: 0x1BEDC, size: 0x8, addend: 0x0, symName: __ZNSt3__14pairIPKcS2_EC1B8ue170006IS2_S2_LPv0EEEOT_OT0_, symObjAddr: 0x3FEC, symBinAddr: 0x1000077FC, symSize: 0x3C }
  - { offsetInCU: 0x1BF3A, offset: 0x1BF3A, size: 0x8, addend: 0x0, symName: __ZNSt3__14pairIPKcS2_EC2B8ue170006IS2_S2_LPv0EEEOT_OT0_, symObjAddr: 0x4028, symBinAddr: 0x100007838, symSize: 0x34 }
  - { offsetInCU: 0x1BF98, offset: 0x1BF98, size: 0x8, addend: 0x0, symName: __ZNSt3__118__unwrap_iter_implIPKcLb1EE8__unwrapB8ue170006ES2_, symObjAddr: 0x405C, symBinAddr: 0x10000786C, symSize: 0x24 }
  - { offsetInCU: 0x1BFC7, offset: 0x1BFC7, size: 0x8, addend: 0x0, symName: __ZNSt3__14pairIPKcPcEC1B8ue170006IRS2_S3_LPv0EEEOT_OT0_, symObjAddr: 0x4194, symBinAddr: 0x1000079A4, symSize: 0x3C }
  - { offsetInCU: 0x1C025, offset: 0x1C025, size: 0x8, addend: 0x0, symName: __ZNSt3__14pairIPKcPcEC2B8ue170006IRS2_S3_LPv0EEEOT_OT0_, symObjAddr: 0x41D0, symBinAddr: 0x1000079E0, symSize: 0x34 }
  - { offsetInCU: 0x1C083, offset: 0x1C083, size: 0x8, addend: 0x0, symName: __ZNSt3__118__unwrap_iter_implIPcLb1EE8__unwrapB8ue170006ES1_, symObjAddr: 0x4204, symBinAddr: 0x100007A14, symSize: 0x24 }
  - { offsetInCU: 0x1C0A6, offset: 0x1C0A6, size: 0x8, addend: 0x0, symName: __ZNSt3__14pairIPKcPcEC1B8ue170006IS2_S3_LPv0EEEOT_OT0_, symObjAddr: 0x4228, symBinAddr: 0x100007A38, symSize: 0x3C }
  - { offsetInCU: 0x1C104, offset: 0x1C104, size: 0x8, addend: 0x0, symName: __ZNSt3__14pairIPKcPcEC2B8ue170006IS2_S3_LPv0EEEOT_OT0_, symObjAddr: 0x4264, symBinAddr: 0x100007A74, symSize: 0x34 }
  - { offsetInCU: 0x1C162, offset: 0x1C162, size: 0x8, addend: 0x0, symName: __ZNSt3__118__unwrap_iter_implIPKcLb1EE8__rewrapB8ue170006ES2_S2_, symObjAddr: 0x42D4, symBinAddr: 0x100007AE4, symSize: 0x48 }
  - { offsetInCU: 0x1C193, offset: 0x1C193, size: 0x8, addend: 0x0, symName: __ZNSt3__118__unwrap_iter_implIPcLb1EE8__rewrapB8ue170006ES1_S1_, symObjAddr: 0x431C, symBinAddr: 0x100007B2C, symSize: 0x48 }
  - { offsetInCU: 0x1C1C4, offset: 0x1C1C4, size: 0x8, addend: 0x0, symName: __ZNSt3__14__fs10filesystem4pathC2B8ue170006EONS_12basic_stringIcNS_11char_traitsIcEENS_9allocatorIcEEEENS2_6formatE, symObjAddr: 0x4420, symBinAddr: 0x100007C30, symSize: 0x38 }
  - { offsetInCU: 0x1C209, offset: 0x1C209, size: 0x8, addend: 0x0, symName: __ZNKSt3__110__function12__value_funcIFddEEclB8ue170006EOd, symObjAddr: 0x4458, symBinAddr: 0x100007C68, symSize: 0x58 }
  - { offsetInCU: 0x1C244, offset: 0x1C244, size: 0x8, addend: 0x0, symName: __ZNSt3__117bad_function_callC1Ev, symObjAddr: 0x44E8, symBinAddr: 0x100007CF8, symSize: 0x2C }
  - { offsetInCU: 0x1C270, offset: 0x1C270, size: 0x8, addend: 0x0, symName: __ZNSt3__117bad_function_callD1Ev, symObjAddr: 0x4514, symBinAddr: 0x100007D24, symSize: 0x2C }
  - { offsetInCU: 0x1C29A, offset: 0x1C29A, size: 0x8, addend: 0x0, symName: __ZNSt3__117bad_function_callC2Ev, symObjAddr: 0x4540, symBinAddr: 0x100007D50, symSize: 0x44 }
  - { offsetInCU: 0x1C2C6, offset: 0x1C2C6, size: 0x8, addend: 0x0, symName: __ZNSt9exceptionC2B8ue170006Ev, symObjAddr: 0x4584, symBinAddr: 0x100007D94, symSize: 0x24 }
  - { offsetInCU: 0x1C2F0, offset: 0x1C2F0, size: 0x8, addend: 0x0, symName: __ZNSt3__117bad_function_callD0Ev, symObjAddr: 0x45A8, symBinAddr: 0x100007DB8, symSize: 0x30 }
  - { offsetInCU: 0x1C31A, offset: 0x1C31A, size: 0x8, addend: 0x0, symName: __ZNSt3__117bad_function_callD2Ev, symObjAddr: 0x45D8, symBinAddr: 0x100007DE8, symSize: 0x2C }
  - { offsetInCU: 0x1C344, offset: 0x1C344, size: 0x8, addend: 0x0, symName: __ZNSt3__16vectorIdNS_9allocatorIdEEEixB8ue170006Em, symObjAddr: 0x4604, symBinAddr: 0x100007E14, symSize: 0x24 }
  - { offsetInCU: 0x1C42C, offset: 0x1C42C, size: 0x8, addend: 0x0, symName: __ZNSt3__114basic_ofstreamIcNS_11char_traitsIcEEEC1ERKNS_12basic_stringIcS2_NS_9allocatorIcEEEEj, symObjAddr: 0x4628, symBinAddr: 0x100007E38, symSize: 0x16C }
  - { offsetInCU: 0x1C476, offset: 0x1C476, size: 0x8, addend: 0x0, symName: __ZNK9StateData12get_velocityEi, symObjAddr: 0x47DC, symBinAddr: 0x100007FEC, symSize: 0x34 }
  - { offsetInCU: 0x1C4AA, offset: 0x1C4AA, size: 0x8, addend: 0x0, symName: __ZNSt3__114basic_ofstreamIcNS_11char_traitsIcEEE5closeEv, symObjAddr: 0x4810, symBinAddr: 0x100008020, symSize: 0x58 }
  - { offsetInCU: 0x1C4D8, offset: 0x1C4D8, size: 0x8, addend: 0x0, symName: __ZNSt3__114basic_ofstreamIcNS_11char_traitsIcEEED1Ev, symObjAddr: 0x4868, symBinAddr: 0x100008078, symSize: 0x40 }
  - { offsetInCU: 0x1C505, offset: 0x1C505, size: 0x8, addend: 0x0, symName: __ZNSt3__19basic_iosIcNS_11char_traitsIcEEEC2B8ue170006Ev, symObjAddr: 0x48A8, symBinAddr: 0x1000080B8, symSize: 0x44 }
  - { offsetInCU: 0x1C52F, offset: 0x1C52F, size: 0x8, addend: 0x0, symName: __ZNSt3__113basic_ostreamIcNS_11char_traitsIcEEEC2B8ue170006EPNS_15basic_streambufIcS2_EE, symObjAddr: 0x48EC, symBinAddr: 0x1000080FC, symSize: 0x60 }
  - { offsetInCU: 0x1C574, offset: 0x1C574, size: 0x8, addend: 0x0, symName: __ZNSt3__113basic_filebufIcNS_11char_traitsIcEEE4openERKNS_12basic_stringIcS2_NS_9allocatorIcEEEEj, symObjAddr: 0x494C, symBinAddr: 0x10000815C, symSize: 0x44 }
  - { offsetInCU: 0x1C5B8, offset: 0x1C5B8, size: 0x8, addend: 0x0, symName: __ZNSt3__19basic_iosIcNS_11char_traitsIcEEE8setstateB8ue170006Ej, symObjAddr: 0x4990, symBinAddr: 0x1000081A0, symSize: 0x2C }
  - { offsetInCU: 0x1C5ED, offset: 0x1C5ED, size: 0x8, addend: 0x0, symName: __ZNSt3__18ios_baseC2B8ue170006Ev, symObjAddr: 0x49BC, symBinAddr: 0x1000081CC, symSize: 0x24 }
  - { offsetInCU: 0x1C617, offset: 0x1C617, size: 0x8, addend: 0x0, symName: __ZNSt3__19basic_iosIcNS_11char_traitsIcEEE4initB8ue170006EPNS_15basic_streambufIcS2_EE, symObjAddr: 0x49E0, symBinAddr: 0x1000081F0, symSize: 0x44 }
  - { offsetInCU: 0x1C64E, offset: 0x1C64E, size: 0x8, addend: 0x0, symName: __ZNSt3__111char_traitsIcE3eofB8ue170006Ev, symObjAddr: 0x4A24, symBinAddr: 0x100008234, symSize: 0x8 }
  - { offsetInCU: 0x1C662, offset: 0x1C662, size: 0x8, addend: 0x0, symName: __ZNKSt3__112basic_stringIcNS_11char_traitsIcEENS_9allocatorIcEEE5c_strB8ue170006Ev, symObjAddr: 0x4A2C, symBinAddr: 0x10000823C, symSize: 0x24 }
  - { offsetInCU: 0x1C688, offset: 0x1C688, size: 0x8, addend: 0x0, symName: __ZNSt3__18ios_base8setstateB8ue170006Ej, symObjAddr: 0x4A50, symBinAddr: 0x100008260, symSize: 0x34 }
  - { offsetInCU: 0x1C6E2, offset: 0x1C6E2, size: 0x8, addend: 0x0, symName: __ZNKSt3__113basic_ostreamIcNS_11char_traitsIcEEE6sentrycvbB8ue170006Ev, symObjAddr: 0x4C70, symBinAddr: 0x100008480, symSize: 0x1C }
  - { offsetInCU: 0x1C708, offset: 0x1C708, size: 0x8, addend: 0x0, symName: __ZNSt3__119ostreambuf_iteratorIcNS_11char_traitsIcEEEC1B8ue170006ERNS_13basic_ostreamIcS2_EE, symObjAddr: 0x4ECC, symBinAddr: 0x1000086DC, symSize: 0x34 }
  - { offsetInCU: 0x1C740, offset: 0x1C740, size: 0x8, addend: 0x0, symName: __ZNKSt3__18ios_base5flagsB8ue170006Ev, symObjAddr: 0x4F00, symBinAddr: 0x100008710, symSize: 0x18 }
  - { offsetInCU: 0x1C768, offset: 0x1C768, size: 0x8, addend: 0x0, symName: __ZNKSt3__19basic_iosIcNS_11char_traitsIcEEE4fillB8ue170006Ev, symObjAddr: 0x4F18, symBinAddr: 0x100008728, symSize: 0x64 }
  - { offsetInCU: 0x1C790, offset: 0x1C790, size: 0x8, addend: 0x0, symName: __ZNKSt3__119ostreambuf_iteratorIcNS_11char_traitsIcEEE6failedB8ue170006Ev, symObjAddr: 0x4F7C, symBinAddr: 0x10000878C, symSize: 0x24 }
  - { offsetInCU: 0x1C7B6, offset: 0x1C7B6, size: 0x8, addend: 0x0, symName: __ZNKSt3__18ios_base5widthB8ue170006Ev, symObjAddr: 0x4FA0, symBinAddr: 0x1000087B0, symSize: 0x18 }
  - { offsetInCU: 0x1C7DE, offset: 0x1C7DE, size: 0x8, addend: 0x0, symName: __ZNSt3__115basic_streambufIcNS_11char_traitsIcEEE5sputnB8ue170006EPKcl, symObjAddr: 0x4FB8, symBinAddr: 0x1000087C8, symSize: 0x3C }
  - { offsetInCU: 0x1C820, offset: 0x1C820, size: 0x8, addend: 0x0, symName: __ZNSt3__112basic_stringIcNS_11char_traitsIcEENS_9allocatorIcEEEC1B8ue170006Emc, symObjAddr: 0x4FF4, symBinAddr: 0x100008804, symSize: 0x3C }
  - { offsetInCU: 0x1C868, offset: 0x1C868, size: 0x8, addend: 0x0, symName: __ZNSt3__112basic_stringIcNS_11char_traitsIcEENS_9allocatorIcEEE4dataB8ue170006Ev, symObjAddr: 0x5030, symBinAddr: 0x100008840, symSize: 0x28 }
  - { offsetInCU: 0x1C88E, offset: 0x1C88E, size: 0x8, addend: 0x0, symName: __ZNSt3__18ios_base5widthB8ue170006El, symObjAddr: 0x5058, symBinAddr: 0x100008868, symSize: 0x2C }
  - { offsetInCU: 0x1C8D4, offset: 0x1C8D4, size: 0x8, addend: 0x0, symName: __ZNSt3__112basic_stringIcNS_11char_traitsIcEENS_9allocatorIcEEEC2B8ue170006Emc, symObjAddr: 0x5084, symBinAddr: 0x100008894, symSize: 0x4C }
  - { offsetInCU: 0x1C91C, offset: 0x1C91C, size: 0x8, addend: 0x0, symName: __ZNSt3__119ostreambuf_iteratorIcNS_11char_traitsIcEEEC2B8ue170006ERNS_13basic_ostreamIcS2_EE, symObjAddr: 0x50D0, symBinAddr: 0x1000088E0, symSize: 0x54 }
  - { offsetInCU: 0x1C954, offset: 0x1C954, size: 0x8, addend: 0x0, symName: __ZNKSt3__19basic_iosIcNS_11char_traitsIcEEE5rdbufB8ue170006Ev, symObjAddr: 0x5124, symBinAddr: 0x100008934, symSize: 0x24 }
  - { offsetInCU: 0x1C97C, offset: 0x1C97C, size: 0x8, addend: 0x0, symName: __ZNKSt3__18ios_base5rdbufB8ue170006Ev, symObjAddr: 0x5148, symBinAddr: 0x100008958, symSize: 0x18 }
  - { offsetInCU: 0x1C9A2, offset: 0x1C9A2, size: 0x8, addend: 0x0, symName: __ZNSt3__111char_traitsIcE11eq_int_typeB8ue170006Eii, symObjAddr: 0x5160, symBinAddr: 0x100008970, symSize: 0x28 }
  - { offsetInCU: 0x1C9D5, offset: 0x1C9D5, size: 0x8, addend: 0x0, symName: __ZNKSt3__19basic_iosIcNS_11char_traitsIcEEE5widenB8ue170006Ec, symObjAddr: 0x5188, symBinAddr: 0x100008998, symSize: 0x84 }
  - { offsetInCU: 0x1CA45, offset: 0x1CA45, size: 0x8, addend: 0x0, symName: __ZNKSt3__15ctypeIcE5widenB8ue170006Ec, symObjAddr: 0x5238, symBinAddr: 0x100008A48, symSize: 0x38 }
  - { offsetInCU: 0x1CA7A, offset: 0x1CA7A, size: 0x8, addend: 0x0, symName: __ZNKSt3__16vectorIdNS_9allocatorIdEEE2atEm, symObjAddr: 0x5270, symBinAddr: 0x100008A80, symSize: 0x60 }
  - { offsetInCU: 0x1CAB1, offset: 0x1CAB1, size: 0x8, addend: 0x0, symName: __ZNKSt3__16vectorIdNS_9allocatorIdEEE20__throw_out_of_rangeB8ue170006Ev, symObjAddr: 0x52D0, symBinAddr: 0x100008AE0, symSize: 0x1C }
  - { offsetInCU: 0x1CAD7, offset: 0x1CAD7, size: 0x8, addend: 0x0, symName: __ZNSt12out_of_rangeC1B8ue170006EPKc, symObjAddr: 0x5350, symBinAddr: 0x100008B60, symSize: 0x34 }
  - { offsetInCU: 0x1CB0F, offset: 0x1CB0F, size: 0x8, addend: 0x0, symName: __ZNSt12out_of_rangeC2B8ue170006EPKc, symObjAddr: 0x5384, symBinAddr: 0x100008B94, symSize: 0x4C }
  - { offsetInCU: 0x1CB47, offset: 0x1CB47, size: 0x8, addend: 0x0, symName: __ZNSt3__114basic_ofstreamIcNS_11char_traitsIcEEED2Ev, symObjAddr: 0x53D0, symBinAddr: 0x100008BE0, symSize: 0x64 }
  - { offsetInCU: 0x1CB81, offset: 0x1CB81, size: 0x8, addend: 0x0, symName: __ZTv0_n24_NSt3__114basic_ofstreamIcNS_11char_traitsIcEEED1Ev, symObjAddr: 0x5434, symBinAddr: 0x100008C44, symSize: 0x28 }
  - { offsetInCU: 0x1CB98, offset: 0x1CB98, size: 0x8, addend: 0x0, symName: __ZN9StateDataD2Ev, symObjAddr: 0x545C, symBinAddr: 0x100008C6C, symSize: 0x30 }
  - { offsetInCU: 0x1CBC4, offset: 0x1CBC4, size: 0x8, addend: 0x0, symName: __ZNSt3__16vectorIdNS_9allocatorIdEEED1B8ue170006Ev, symObjAddr: 0x548C, symBinAddr: 0x100008C9C, symSize: 0x2C }
  - { offsetInCU: 0x1CBEE, offset: 0x1CBEE, size: 0x8, addend: 0x0, symName: __ZNSt3__16vectorIdNS_9allocatorIdEEED2B8ue170006Ev, symObjAddr: 0x54B8, symBinAddr: 0x100008CC8, symSize: 0x40 }
  - { offsetInCU: 0x1CC18, offset: 0x1CC18, size: 0x8, addend: 0x0, symName: __ZNK9StateData11get_stencilEiii, symObjAddr: 0x54F8, symBinAddr: 0x100008D08, symSize: 0x50 }
  - { offsetInCU: 0x1CC78, offset: 0x1CC78, size: 0x8, addend: 0x0, symName: __ZNK15NumericalScheme12log_velocityEv, symObjAddr: 0x5548, symBinAddr: 0x100008D58, symSize: 0x1FC }
  - { offsetInCU: 0x1CCC2, offset: 0x1CCC2, size: 0x8, addend: 0x0, symName: __ZNK15NumericalScheme9log_errorEv, symObjAddr: 0x5744, symBinAddr: 0x100008F54, symSize: 0x13C }
  - { offsetInCU: 0x1CD10, offset: 0x1CD10, size: 0x8, addend: 0x0, symName: __ZN9StateDataaSERKS_, symObjAddr: 0x5880, symBinAddr: 0x100009090, symSize: 0x48 }
  - { offsetInCU: 0x1CD41, offset: 0x1CD41, size: 0x8, addend: 0x0, symName: __ZN11StencilViewC1ERKNSt3__16vectorIdNS0_9allocatorIdEEEEiiii, symObjAddr: 0x58C8, symBinAddr: 0x1000090D8, symSize: 0x54 }
  - { offsetInCU: 0x1CDB1, offset: 0x1CDB1, size: 0x8, addend: 0x0, symName: __ZN11StencilViewC2ERKNSt3__16vectorIdNS0_9allocatorIdEEEEiiii, symObjAddr: 0x591C, symBinAddr: 0x10000912C, symSize: 0x50 }
  - { offsetInCU: 0x1CE21, offset: 0x1CE21, size: 0x8, addend: 0x0, symName: __ZNSt3__112basic_stringIcNS_11char_traitsIcEENS_9allocatorIcEEE6appendB8ue170006ERKS5_, symObjAddr: 0x59AC, symBinAddr: 0x1000091BC, symSize: 0x4C }
  - { offsetInCU: 0x1CE56, offset: 0x1CE56, size: 0x8, addend: 0x0, symName: __ZNK15NumericalScheme8error_L1Ev, symObjAddr: 0x5A3C, symBinAddr: 0x10000924C, symSize: 0xEC }
  - { offsetInCU: 0x1CEE0, offset: 0x1CEE0, size: 0x8, addend: 0x0, symName: __ZNSt3__16vectorIdNS_9allocatorIdEEEC1B8ue170006ESt16initializer_listIdE, symObjAddr: 0x5B28, symBinAddr: 0x100009338, symSize: 0x3C }
  - { offsetInCU: 0x1CF1B, offset: 0x1CF1B, size: 0x8, addend: 0x0, symName: __ZNK15NumericalScheme8log_dataERKNSt3__112basic_stringIcNS0_11char_traitsIcEENS0_9allocatorIcEEEERKNS0_6vectorIdNS4_IdEEEE, symObjAddr: 0x5B64, symBinAddr: 0x100009374, symSize: 0x1D8 }
  - { offsetInCU: 0x1CFB0, offset: 0x1CFB0, size: 0x8, addend: 0x0, symName: __ZNKSt3__18functionIFdddEEclEdd, symObjAddr: 0x5D3C, symBinAddr: 0x10000954C, symSize: 0x34 }
  - { offsetInCU: 0x1CFF5, offset: 0x1CFF5, size: 0x8, addend: 0x0, symName: __Z3absB8ue170006d, symObjAddr: 0x5D70, symBinAddr: 0x100009580, symSize: 0x18 }
  - { offsetInCU: 0x1D022, offset: 0x1D022, size: 0x8, addend: 0x0, symName: __ZNKSt3__110__function12__value_funcIFdddEEclB8ue170006EOdS4_, symObjAddr: 0x5D88, symBinAddr: 0x100009598, symSize: 0x60 }
  - { offsetInCU: 0x1D066, offset: 0x1D066, size: 0x8, addend: 0x0, symName: __ZNSt3__16vectorIdNS_9allocatorIdEEEC2B8ue170006ESt16initializer_listIdE, symObjAddr: 0x5DE8, symBinAddr: 0x1000095F8, symSize: 0x120 }
  - { offsetInCU: 0x1D0B6, offset: 0x1D0B6, size: 0x8, addend: 0x0, symName: __ZNKSt16initializer_listIdE4sizeB8ue170006Ev, symObjAddr: 0x5F08, symBinAddr: 0x100009718, symSize: 0x18 }
  - { offsetInCU: 0x1D0DC, offset: 0x1D0DC, size: 0x8, addend: 0x0, symName: __ZNSt3__16vectorIdNS_9allocatorIdEEE18__construct_at_endIPKdS6_EEvT_T0_m, symObjAddr: 0x5F20, symBinAddr: 0x100009730, symSize: 0x8C }
  - { offsetInCU: 0x1D152, offset: 0x1D152, size: 0x8, addend: 0x0, symName: __ZNKSt16initializer_listIdE5beginB8ue170006Ev, symObjAddr: 0x5FAC, symBinAddr: 0x1000097BC, symSize: 0x18 }
  - { offsetInCU: 0x1D178, offset: 0x1D178, size: 0x8, addend: 0x0, symName: __ZNKSt16initializer_listIdE3endB8ue170006Ev, symObjAddr: 0x5FC4, symBinAddr: 0x1000097D4, symSize: 0x20 }
  - { offsetInCU: 0x1D1C1, offset: 0x1D1C1, size: 0x8, addend: 0x0, symName: __ZNSt3__14pairIPKdS2_EC1B8ue170006IS2_S2_LPv0EEEOT_OT0_, symObjAddr: 0x61B8, symBinAddr: 0x1000099C8, symSize: 0x3C }
  - { offsetInCU: 0x1D21F, offset: 0x1D21F, size: 0x8, addend: 0x0, symName: __ZNSt3__14pairIPKdS2_EC2B8ue170006IS2_S2_LPv0EEEOT_OT0_, symObjAddr: 0x61F4, symBinAddr: 0x100009A04, symSize: 0x34 }
  - { offsetInCU: 0x1D27D, offset: 0x1D27D, size: 0x8, addend: 0x0, symName: __ZNSt3__118__unwrap_iter_implIPKdLb1EE8__unwrapB8ue170006ES2_, symObjAddr: 0x6228, symBinAddr: 0x100009A38, symSize: 0x24 }
  - { offsetInCU: 0x1D2BD, offset: 0x1D2BD, size: 0x8, addend: 0x0, symName: __ZNKSt3__114__copy_trivialclB8ue170006IKddLi0EEENS_4pairIPT_PT0_EES5_S5_S7_, symObjAddr: 0x63DC, symBinAddr: 0x100009BEC, symSize: 0x48 }
  - { offsetInCU: 0x1D331, offset: 0x1D331, size: 0x8, addend: 0x0, symName: __ZNSt3__14pairIPKdPdEC1B8ue170006IRS2_S3_LPv0EEEOT_OT0_, symObjAddr: 0x65A4, symBinAddr: 0x100009DB4, symSize: 0x3C }
  - { offsetInCU: 0x1D38F, offset: 0x1D38F, size: 0x8, addend: 0x0, symName: __ZNSt3__14pairIPKdPdEC2B8ue170006IRS2_S3_LPv0EEEOT_OT0_, symObjAddr: 0x65E0, symBinAddr: 0x100009DF0, symSize: 0x34 }
  - { offsetInCU: 0x1D3ED, offset: 0x1D3ED, size: 0x8, addend: 0x0, symName: __ZNSt3__14pairIPKdPdEC1B8ue170006IS2_S3_LPv0EEEOT_OT0_, symObjAddr: 0x6614, symBinAddr: 0x100009E24, symSize: 0x3C }
  - { offsetInCU: 0x1D44B, offset: 0x1D44B, size: 0x8, addend: 0x0, symName: __ZNSt3__14pairIPKdPdEC2B8ue170006IS2_S3_LPv0EEEOT_OT0_, symObjAddr: 0x6650, symBinAddr: 0x100009E60, symSize: 0x34 }
  - { offsetInCU: 0x1D4A9, offset: 0x1D4A9, size: 0x8, addend: 0x0, symName: __ZNSt3__118__unwrap_iter_implIPKdLb1EE8__rewrapB8ue170006ES2_S2_, symObjAddr: 0x66C0, symBinAddr: 0x100009ED0, symSize: 0x50 }
  - { offsetInCU: 0x1D4DA, offset: 0x1D4DA, size: 0x8, addend: 0x0, symName: __ZNSt3__118__unwrap_iter_implIPdLb1EE8__unwrapB8ue170006ES1_, symObjAddr: 0x6710, symBinAddr: 0x100009F20, symSize: 0x24 }
  - { offsetInCU: 0x1D4FD, offset: 0x1D4FD, size: 0x8, addend: 0x0, symName: __ZNSt3__118__unwrap_iter_implIPdLb1EE8__rewrapB8ue170006ES1_S1_, symObjAddr: 0x6734, symBinAddr: 0x100009F44, symSize: 0x50 }
  - { offsetInCU: 0x1D52E, offset: 0x1D52E, size: 0x8, addend: 0x0, symName: __ZNKSt3__16vectorIdNS_9allocatorIdEEE5beginB8ue170006Ev, symObjAddr: 0x67C4, symBinAddr: 0x100009FD4, symSize: 0x30 }
  - { offsetInCU: 0x1D556, offset: 0x1D556, size: 0x8, addend: 0x0, symName: __ZNKSt3__16vectorIdNS_9allocatorIdEEE3endB8ue170006Ev, symObjAddr: 0x67F4, symBinAddr: 0x10000A004, symSize: 0x30 }
  - { offsetInCU: 0x1D57E, offset: 0x1D57E, size: 0x8, addend: 0x0, symName: __ZNKSt3__111__wrap_iterIPKdEdeB8ue170006Ev, symObjAddr: 0x6858, symBinAddr: 0x10000A068, symSize: 0x18 }
  - { offsetInCU: 0x1D5A4, offset: 0x1D5A4, size: 0x8, addend: 0x0, symName: __ZNSt3__111__wrap_iterIPKdEppB8ue170006Ev, symObjAddr: 0x6870, symBinAddr: 0x10000A080, symSize: 0x20 }
  - { offsetInCU: 0x1D5CA, offset: 0x1D5CA, size: 0x8, addend: 0x0, symName: __ZNKSt3__16vectorIdNS_9allocatorIdEEE11__make_iterB8ue170006EPKd, symObjAddr: 0x6890, symBinAddr: 0x10000A0A0, symSize: 0x30 }
  - { offsetInCU: 0x1D5FF, offset: 0x1D5FF, size: 0x8, addend: 0x0, symName: __ZNSt3__111__wrap_iterIPKdEC1B8ue170006ES2_, symObjAddr: 0x68C0, symBinAddr: 0x10000A0D0, symSize: 0x34 }
  - { offsetInCU: 0x1D637, offset: 0x1D637, size: 0x8, addend: 0x0, symName: __ZNSt3__111__wrap_iterIPKdEC2B8ue170006ES2_, symObjAddr: 0x68F4, symBinAddr: 0x10000A104, symSize: 0x20 }
  - { offsetInCU: 0x1D66F, offset: 0x1D66F, size: 0x8, addend: 0x0, symName: __ZNKSt3__111__wrap_iterIPKdE4baseB8ue170006Ev, symObjAddr: 0x695C, symBinAddr: 0x10000A16C, symSize: 0x18 }
  - { offsetInCU: 0x1D695, offset: 0x1D695, size: 0x8, addend: 0x0, symName: __ZNSt3__16vectorIdNS_9allocatorIdEEEaSB8ue170006ERKS3_, symObjAddr: 0x6974, symBinAddr: 0x10000A184, symSize: 0x68 }
  - { offsetInCU: 0x1D6CC, offset: 0x1D6CC, size: 0x8, addend: 0x0, symName: __ZNSt3__16vectorIdNS_9allocatorIdEEE19__copy_assign_allocB8ue170006ERKS3_, symObjAddr: 0x69DC, symBinAddr: 0x10000A1EC, symSize: 0x2C }
  - { offsetInCU: 0x1D701, offset: 0x1D701, size: 0x8, addend: 0x0, symName: __ZNSt3__16vectorIdNS_9allocatorIdEEE6assignIPdLi0EEEvT_S6_, symObjAddr: 0x6A08, symBinAddr: 0x10000A218, symSize: 0x5C }
  - { offsetInCU: 0x1D756, offset: 0x1D756, size: 0x8, addend: 0x0, symName: __ZNSt3__16vectorIdNS_9allocatorIdEEE19__copy_assign_allocB8ue170006ERKS3_NS_17integral_constantIbLb0EEE, symObjAddr: 0x6A64, symBinAddr: 0x10000A274, symSize: 0x14 }
  - { offsetInCU: 0x1D794, offset: 0x1D794, size: 0x8, addend: 0x0, symName: __ZNSt3__16vectorIdNS_9allocatorIdEEE18__assign_with_sizeB8ue170006IPdS5_EEvT_T0_l, symObjAddr: 0x6A78, symBinAddr: 0x10000A288, symSize: 0x164 }
  - { offsetInCU: 0x1D846, offset: 0x1D846, size: 0x8, addend: 0x0, symName: __ZNSt3__16vectorIdNS_9allocatorIdEEE18__construct_at_endIPdS5_EEvT_T0_m, symObjAddr: 0x6C7C, symBinAddr: 0x10000A48C, symSize: 0x8C }
  - { offsetInCU: 0x1D8BC, offset: 0x1D8BC, size: 0x8, addend: 0x0, symName: __ZNSt3__16vectorIdNS_9allocatorIdEEE17__destruct_at_endB8ue170006EPd, symObjAddr: 0x6D4C, symBinAddr: 0x10000A55C, symSize: 0x4C }
  - { offsetInCU: 0x1D900, offset: 0x1D900, size: 0x8, addend: 0x0, symName: __ZNSt3__16vectorIdNS_9allocatorIdEEE13__vdeallocateEv, symObjAddr: 0x6D98, symBinAddr: 0x10000A5A8, symSize: 0x94 }
  - { offsetInCU: 0x1D928, offset: 0x1D928, size: 0x8, addend: 0x0, symName: __ZNKSt3__16vectorIdNS_9allocatorIdEEE11__recommendB8ue170006Em, symObjAddr: 0x6E2C, symBinAddr: 0x10000A63C, symSize: 0xB4 }
  - { offsetInCU: 0x1D99A, offset: 0x1D99A, size: 0x8, addend: 0x0, symName: __ZNSt3__14pairIPdS1_EC1B8ue170006IS1_S1_LPv0EEEOT_OT0_, symObjAddr: 0x70A4, symBinAddr: 0x10000A8B4, symSize: 0x3C }
  - { offsetInCU: 0x1D9F8, offset: 0x1D9F8, size: 0x8, addend: 0x0, symName: __ZNSt3__14pairIPdS1_EC2B8ue170006IS1_S1_LPv0EEEOT_OT0_, symObjAddr: 0x70E0, symBinAddr: 0x10000A8F0, symSize: 0x34 }
  - { offsetInCU: 0x1DA56, offset: 0x1DA56, size: 0x8, addend: 0x0, symName: __ZNKSt3__114__copy_trivialclB8ue170006IddLi0EEENS_4pairIPT_PT0_EES4_S4_S6_, symObjAddr: 0x720C, symBinAddr: 0x10000AA1C, symSize: 0x48 }
  - { offsetInCU: 0x1DABE, offset: 0x1DABE, size: 0x8, addend: 0x0, symName: __ZNSt3__14pairIPdS1_EC1B8ue170006IRS1_S1_LPv0EEEOT_OT0_, symObjAddr: 0x739C, symBinAddr: 0x10000ABAC, symSize: 0x3C }
  - { offsetInCU: 0x1DB1C, offset: 0x1DB1C, size: 0x8, addend: 0x0, symName: __ZNSt3__14pairIPdS1_EC2B8ue170006IRS1_S1_LPv0EEEOT_OT0_, symObjAddr: 0x73D8, symBinAddr: 0x10000ABE8, symSize: 0x34 }
  - { offsetInCU: 0x1DB7A, offset: 0x1DB7A, size: 0x8, addend: 0x0, symName: __ZNKSt3__16vectorIdNS_9allocatorIdEEE17__annotate_shrinkB8ue170006Em, symObjAddr: 0x740C, symBinAddr: 0x10000AC1C, symSize: 0xB4 }
  - { offsetInCU: 0x1DBAF, offset: 0x1DBAF, size: 0x8, addend: 0x0, symName: __ZNSt3__16vectorIdNS_9allocatorIdEEE5clearB8ue170006Ev, symObjAddr: 0x74C0, symBinAddr: 0x10000ACD0, symSize: 0x44 }
  - { offsetInCU: 0x1DBE4, offset: 0x1DBE4, size: 0x8, addend: 0x0, symName: __ZN15NumericalSchemeD2Ev, symObjAddr: 0x75AC, symBinAddr: 0x10000ADBC, symSize: 0x44 }
  - { offsetInCU: 0x1DC10, offset: 0x1DC10, size: 0x8, addend: 0x0, symName: __ZN22Advection_Warming_BeamD2Ev, symObjAddr: 0x75F0, symBinAddr: 0x10000AE00, symSize: 0x2C }
  - { offsetInCU: 0x1DC3C, offset: 0x1DC3C, size: 0x8, addend: 0x0, symName: __ZN13IterativeRuleD2Ev, symObjAddr: 0x761C, symBinAddr: 0x10000AE2C, symSize: 0x14 }
  - { offsetInCU: 0x1DC66, offset: 0x1DC66, size: 0x8, addend: 0x0, symName: __ZN24Advection_Lax_FriedrichsC2Ed, symObjAddr: 0x7630, symBinAddr: 0x10000AE40, symSize: 0x58 }
  - { offsetInCU: 0x1DC9E, offset: 0x1DC9E, size: 0x8, addend: 0x0, symName: __ZN24Advection_Lax_Friedrichs5applyERK11StencilViewdd, symObjAddr: 0x7688, symBinAddr: 0x10000AE98, symSize: 0x9C }
  - { offsetInCU: 0x1DD18, offset: 0x1DD18, size: 0x8, addend: 0x0, symName: __ZN24Advection_Lax_FriedrichsD0Ev, symObjAddr: 0x7724, symBinAddr: 0x10000AF34, symSize: 0x30 }
  - { offsetInCU: 0x1DD44, offset: 0x1DD44, size: 0x8, addend: 0x0, symName: __ZN24Advection_Lax_FriedrichsD2Ev, symObjAddr: 0x7754, symBinAddr: 0x10000AF64, symSize: 0x2C }
  - { offsetInCU: 0x1DD70, offset: 0x1DD70, size: 0x8, addend: 0x0, symName: __ZN22Advection_Lax_WendroffC2Ed, symObjAddr: 0x7780, symBinAddr: 0x10000AF90, symSize: 0x58 }
  - { offsetInCU: 0x1DDA8, offset: 0x1DDA8, size: 0x8, addend: 0x0, symName: __ZN22Advection_Lax_Wendroff5applyERK11StencilViewdd, symObjAddr: 0x77D8, symBinAddr: 0x10000AFE8, symSize: 0xD0 }
  - { offsetInCU: 0x1DE30, offset: 0x1DE30, size: 0x8, addend: 0x0, symName: __ZN22Advection_Lax_WendroffD0Ev, symObjAddr: 0x78A8, symBinAddr: 0x10000B0B8, symSize: 0x30 }
  - { offsetInCU: 0x1DE5C, offset: 0x1DE5C, size: 0x8, addend: 0x0, symName: __ZN22Advection_Lax_WendroffD2Ev, symObjAddr: 0x78D8, symBinAddr: 0x10000B0E8, symSize: 0x2C }
  - { offsetInCU: 0x1DE88, offset: 0x1DE88, size: 0x8, addend: 0x0, symName: __ZNSt3__18functionIFdddEED2Ev, symObjAddr: 0x7904, symBinAddr: 0x10000B114, symSize: 0x2C }
  - { offsetInCU: 0x1DEB4, offset: 0x1DEB4, size: 0x8, addend: 0x0, symName: __ZNSt3__110__function12__value_funcIFdddEED1B8ue170006Ev, symObjAddr: 0x7930, symBinAddr: 0x10000B140, symSize: 0x2C }
  - { offsetInCU: 0x1DEDE, offset: 0x1DEDE, size: 0x8, addend: 0x0, symName: __ZNSt3__110__function12__value_funcIFdddEED2B8ue170006Ev, symObjAddr: 0x795C, symBinAddr: 0x10000B16C, symSize: 0x90 }
  - { offsetInCU: 0x1DF08, offset: 0x1DF08, size: 0x8, addend: 0x0, symName: __ZNSt3__18functionIFddEEC2ERKS2_, symObjAddr: 0x79EC, symBinAddr: 0x10000B1FC, symSize: 0x34 }
  - { offsetInCU: 0x1DF43, offset: 0x1DF43, size: 0x8, addend: 0x0, symName: __ZNSt3__110__function12__value_funcIFddEEC1B8ue170006ERKS3_, symObjAddr: 0x7A20, symBinAddr: 0x10000B230, symSize: 0x34 }
  - { offsetInCU: 0x1DF7C, offset: 0x1DF7C, size: 0x8, addend: 0x0, symName: __ZNSt3__110__function12__value_funcIFddEEC2B8ue170006ERKS3_, symObjAddr: 0x7A54, symBinAddr: 0x10000B264, symSize: 0xC0 }
  - { offsetInCU: 0x1DFB5, offset: 0x1DFB5, size: 0x8, addend: 0x0, symName: __ZNSt3__110__function12__value_funcIFddEE9__as_baseB8ue170006EPv, symObjAddr: 0x7B14, symBinAddr: 0x10000B324, symSize: 0x14 }
  - { offsetInCU: 0x1DFD9, offset: 0x1DFD9, size: 0x8, addend: 0x0, symName: __ZNSt3__18functionIFddEED2Ev, symObjAddr: 0x7B28, symBinAddr: 0x10000B338, symSize: 0x2C }
  - { offsetInCU: 0x1E005, offset: 0x1E005, size: 0x8, addend: 0x0, symName: __ZNSt3__110__function12__value_funcIFddEED1B8ue170006Ev, symObjAddr: 0x7B54, symBinAddr: 0x10000B364, symSize: 0x2C }
  - { offsetInCU: 0x1E02F, offset: 0x1E02F, size: 0x8, addend: 0x0, symName: __ZNSt3__110__function12__value_funcIFddEED2B8ue170006Ev, symObjAddr: 0x7B80, symBinAddr: 0x10000B390, symSize: 0x90 }
  - { offsetInCU: 0x1E059, offset: 0x1E059, size: 0x8, addend: 0x0, symName: '__ZNSt3__18functionIFdddEEC2IZ17AdvectionSolutionNS0_IFddEEEdE3$_0vEET_', symObjAddr: 0x7C10, symBinAddr: 0x10000B420, symSize: 0x34 }
  - { offsetInCU: 0x1E09F, offset: 0x1E09F, size: 0x8, addend: 0x0, symName: '__ZNSt3__110__function12__value_funcIFdddEEC1B8ue170006IZ17AdvectionSolutionNS_8functionIFddEEEdE3$_0vEEOT_', symObjAddr: 0x7C44, symBinAddr: 0x10000B454, symSize: 0x50 }
  - { offsetInCU: 0x1E0E2, offset: 0x1E0E2, size: 0x8, addend: 0x0, symName: '__ZNSt3__19allocatorIZ17AdvectionSolutionNS_8functionIFddEEEdE3$_0EC1B8ue170006Ev', symObjAddr: 0x7C94, symBinAddr: 0x10000B4A4, symSize: 0x2C }
  - { offsetInCU: 0x1E10C, offset: 0x1E10C, size: 0x8, addend: 0x0, symName: '__ZNSt3__110__function12__value_funcIFdddEEC1B8ue170006IZ17AdvectionSolutionNS_8functionIFddEEEdE3$_0NS_9allocatorIS8_EEEEOT_RKT0_', symObjAddr: 0x7CC0, symBinAddr: 0x10000B4D0, symSize: 0x3C }
  - { offsetInCU: 0x1E166, offset: 0x1E166, size: 0x8, addend: 0x0, symName: '__ZNSt3__19allocatorIZ17AdvectionSolutionNS_8functionIFddEEEdE3$_0EC2B8ue170006Ev', symObjAddr: 0x7CFC, symBinAddr: 0x10000B50C, symSize: 0x2C }
  - { offsetInCU: 0x1E190, offset: 0x1E190, size: 0x8, addend: 0x0, symName: '__ZNSt3__116__non_trivial_ifILb1ENS_9allocatorIZ17AdvectionSolutionNS_8functionIFddEEEdE3$_0EEEC2B8ue170006Ev', symObjAddr: 0x7D28, symBinAddr: 0x10000B538, symSize: 0x14 }
  - { offsetInCU: 0x1E1BA, offset: 0x1E1BA, size: 0x8, addend: 0x0, symName: '__ZNSt3__110__function12__value_funcIFdddEEC2B8ue170006IZ17AdvectionSolutionNS_8functionIFddEEEdE3$_0NS_9allocatorIS8_EEEEOT_RKT0_', symObjAddr: 0x7D3C, symBinAddr: 0x10000B54C, symSize: 0xF4 }
  - { offsetInCU: 0x1E273, offset: 0x1E273, size: 0x8, addend: 0x0, symName: '__ZNSt3__19allocatorINS_10__function6__funcIZ17AdvectionSolutionNS_8functionIFddEEEdE3$_0NS0_IS6_EEFdddEEEEC1B8ue170006IS6_EERKNS0_IT_EE', symObjAddr: 0x7E48, symBinAddr: 0x10000B658, symSize: 0x34 }
  - { offsetInCU: 0x1E2B0, offset: 0x1E2B0, size: 0x8, addend: 0x0, symName: '__ZNSt3__19allocatorINS_10__function6__funcIZ17AdvectionSolutionNS_8functionIFddEEEdE3$_0NS0_IS6_EEFdddEEEE8allocateB8ue170006Em', symObjAddr: 0x7E7C, symBinAddr: 0x10000B68C, symSize: 0x5C }
  - { offsetInCU: 0x1E2F6, offset: 0x1E2F6, size: 0x8, addend: 0x0, symName: '__ZNSt3__122__allocator_destructorINS_9allocatorINS_10__function6__funcIZ17AdvectionSolutionNS_8functionIFddEEEdE3$_0NS1_IS7_EEFdddEEEEEEC1B8ue170006ERSB_m', symObjAddr: 0x7ED8, symBinAddr: 0x10000B6E8, symSize: 0x3C }
  - { offsetInCU: 0x1E3DD, offset: 0x1E3DD, size: 0x8, addend: 0x0, symName: '__ZNSt3__110unique_ptrINS_10__function6__baseIFdddEEENS_22__allocator_destructorINS_9allocatorINS1_6__funcIZ17AdvectionSolutionNS_8functionIFddEEEdE3$_0NS6_ISB_EES3_EEEEEEEC1B8ue170006ILb1EvEEPSD_NS_16__dependent_typeINS_27__unique_ptr_deleter_sfinaeISF_EEXT_EE20__good_rval_ref_typeE', symObjAddr: 0x7F14, symBinAddr: 0x10000B724, symSize: 0x3C }
  - { offsetInCU: 0x1E42E, offset: 0x1E42E, size: 0x8, addend: 0x0, symName: '__ZNKSt3__110unique_ptrINS_10__function6__baseIFdddEEENS_22__allocator_destructorINS_9allocatorINS1_6__funcIZ17AdvectionSolutionNS_8functionIFddEEEdE3$_0NS6_ISB_EES3_EEEEEEE3getB8ue170006Ev', symObjAddr: 0x7F50, symBinAddr: 0x10000B760, symSize: 0x28 }
  - { offsetInCU: 0x1E454, offset: 0x1E454, size: 0x8, addend: 0x0, symName: '__ZNSt3__110__function6__funcIZ17AdvectionSolutionNS_8functionIFddEEEdE3$_0NS_9allocatorIS5_EEFdddEEC1B8ue170006EOS5_OS7_', symObjAddr: 0x7F78, symBinAddr: 0x10000B788, symSize: 0x3C }
  - { offsetInCU: 0x1E49C, offset: 0x1E49C, size: 0x8, addend: 0x0, symName: '__ZNSt3__110unique_ptrINS_10__function6__baseIFdddEEENS_22__allocator_destructorINS_9allocatorINS1_6__funcIZ17AdvectionSolutionNS_8functionIFddEEEdE3$_0NS6_ISB_EES3_EEEEEEE7releaseB8ue170006Ev', symObjAddr: 0x7FB4, symBinAddr: 0x10000B7C4, symSize: 0x44 }
  - { offsetInCU: 0x1E4D1, offset: 0x1E4D1, size: 0x8, addend: 0x0, symName: '__ZNSt3__110unique_ptrINS_10__function6__baseIFdddEEENS_22__allocator_destructorINS_9allocatorINS1_6__funcIZ17AdvectionSolutionNS_8functionIFddEEEdE3$_0NS6_ISB_EES3_EEEEEEED1B8ue170006Ev', symObjAddr: 0x7FF8, symBinAddr: 0x10000B808, symSize: 0x2C }
  - { offsetInCU: 0x1E4FB, offset: 0x1E4FB, size: 0x8, addend: 0x0, symName: '__ZNSt3__19allocatorINS_10__function6__funcIZ17AdvectionSolutionNS_8functionIFddEEEdE3$_0NS0_IS6_EEFdddEEEEC2B8ue170006IS6_EERKNS0_IT_EE', symObjAddr: 0x8024, symBinAddr: 0x10000B834, symSize: 0x30 }
  - { offsetInCU: 0x1E538, offset: 0x1E538, size: 0x8, addend: 0x0, symName: '__ZNSt3__116__non_trivial_ifILb1ENS_9allocatorINS_10__function6__funcIZ17AdvectionSolutionNS_8functionIFddEEEdE3$_0NS1_IS7_EEFdddEEEEEEC2B8ue170006Ev', symObjAddr: 0x8054, symBinAddr: 0x10000B864, symSize: 0x14 }
  - { offsetInCU: 0x1E56D, offset: 0x1E56D, size: 0x8, addend: 0x0, symName: '__ZNSt3__116allocator_traitsINS_9allocatorINS_10__function6__funcIZ17AdvectionSolutionNS_8functionIFddEEEdE3$_0NS1_IS7_EEFdddEEEEEE8max_sizeB8ue170006ISB_vEEmRKSB_', symObjAddr: 0x8068, symBinAddr: 0x10000B878, symSize: 0x24 }
  - { offsetInCU: 0x1E59B, offset: 0x1E59B, size: 0x8, addend: 0x0, symName: '__ZNKSt3__19allocatorINS_10__function6__funcIZ17AdvectionSolutionNS_8functionIFddEEEdE3$_0NS0_IS6_EEFdddEEEE8max_sizeB8ue170006Ev', symObjAddr: 0x808C, symBinAddr: 0x10000B89C, symSize: 0x18 }
  - { offsetInCU: 0x1E5C1, offset: 0x1E5C1, size: 0x8, addend: 0x0, symName: '__ZNSt3__122__allocator_destructorINS_9allocatorINS_10__function6__funcIZ17AdvectionSolutionNS_8functionIFddEEEdE3$_0NS1_IS7_EEFdddEEEEEEC2B8ue170006ERSB_m', symObjAddr: 0x80A4, symBinAddr: 0x10000B8B4, symSize: 0x2C }
  - { offsetInCU: 0x1E607, offset: 0x1E607, size: 0x8, addend: 0x0, symName: '__ZNSt3__110unique_ptrINS_10__function6__baseIFdddEEENS_22__allocator_destructorINS_9allocatorINS1_6__funcIZ17AdvectionSolutionNS_8functionIFddEEEdE3$_0NS6_ISB_EES3_EEEEEEEC2B8ue170006ILb1EvEEPSD_NS_16__dependent_typeINS_27__unique_ptr_deleter_sfinaeISF_EEXT_EE20__good_rval_ref_typeE', symObjAddr: 0x80D0, symBinAddr: 0x10000B8E0, symSize: 0x48 }
  - { offsetInCU: 0x1E658, offset: 0x1E658, size: 0x8, addend: 0x0, symName: '__ZNSt3__117__compressed_pairIPNS_10__function6__funcIZ17AdvectionSolutionNS_8functionIFddEEEdE3$_0NS_9allocatorIS6_EEFdddEEENS_22__allocator_destructorINS7_ISA_EEEEEC1B8ue170006IRSB_SE_EEOT_OT0_', symObjAddr: 0x8118, symBinAddr: 0x10000B928, symSize: 0x3C }
  - { offsetInCU: 0x1E6B0, offset: 0x1E6B0, size: 0x8, addend: 0x0, symName: '__ZNSt3__117__compressed_pairIPNS_10__function6__funcIZ17AdvectionSolutionNS_8functionIFddEEEdE3$_0NS_9allocatorIS6_EEFdddEEENS_22__allocator_destructorINS7_ISA_EEEEEC2B8ue170006IRSB_SE_EEOT_OT0_', symObjAddr: 0x8154, symBinAddr: 0x10000B964, symSize: 0x48 }
  - { offsetInCU: 0x1E708, offset: 0x1E708, size: 0x8, addend: 0x0, symName: '__ZNSt3__122__compressed_pair_elemIPNS_10__function6__funcIZ17AdvectionSolutionNS_8functionIFddEEEdE3$_0NS_9allocatorIS6_EEFdddEEELi0ELb0EEC2B8ue170006IRSB_vEEOT_', symObjAddr: 0x819C, symBinAddr: 0x10000B9AC, symSize: 0x24 }
  - { offsetInCU: 0x1E74A, offset: 0x1E74A, size: 0x8, addend: 0x0, symName: '__ZNSt3__122__compressed_pair_elemINS_22__allocator_destructorINS_9allocatorINS_10__function6__funcIZ17AdvectionSolutionNS_8functionIFddEEEdE3$_0NS2_IS8_EEFdddEEEEEEELi1ELb0EEC2B8ue170006ISD_vEEOT_', symObjAddr: 0x81C0, symBinAddr: 0x10000B9D0, symSize: 0x24 }
  - { offsetInCU: 0x1E78C, offset: 0x1E78C, size: 0x8, addend: 0x0, symName: '__ZNKSt3__117__compressed_pairIPNS_10__function6__funcIZ17AdvectionSolutionNS_8functionIFddEEEdE3$_0NS_9allocatorIS6_EEFdddEEENS_22__allocator_destructorINS7_ISA_EEEEE5firstB8ue170006Ev', symObjAddr: 0x81E4, symBinAddr: 0x10000B9F4, symSize: 0x24 }
  - { offsetInCU: 0x1E7B2, offset: 0x1E7B2, size: 0x8, addend: 0x0, symName: '__ZNKSt3__122__compressed_pair_elemIPNS_10__function6__funcIZ17AdvectionSolutionNS_8functionIFddEEEdE3$_0NS_9allocatorIS6_EEFdddEEELi0ELb0EE5__getB8ue170006Ev', symObjAddr: 0x8208, symBinAddr: 0x10000BA18, symSize: 0x14 }
  - { offsetInCU: 0x1E7D8, offset: 0x1E7D8, size: 0x8, addend: 0x0, symName: '__ZNSt3__110__function6__funcIZ17AdvectionSolutionNS_8functionIFddEEEdE3$_0NS_9allocatorIS5_EEFdddEEC2B8ue170006EOS5_OS7_', symObjAddr: 0x821C, symBinAddr: 0x10000BA2C, symSize: 0x88 }
  - { offsetInCU: 0x1E820, offset: 0x1E820, size: 0x8, addend: 0x0, symName: __ZNSt3__110__function6__baseIFdddEEC2B8ue170006Ev, symObjAddr: 0x82A4, symBinAddr: 0x10000BAB4, symSize: 0x24 }
  - { offsetInCU: 0x1E84A, offset: 0x1E84A, size: 0x8, addend: 0x0, symName: '__ZNSt3__110__function12__alloc_funcIZ17AdvectionSolutionNS_8functionIFddEEEdE3$_0NS_9allocatorIS5_EEFdddEEC1B8ue170006EOS5_OS7_', symObjAddr: 0x82C8, symBinAddr: 0x10000BAD8, symSize: 0x3C }
  - { offsetInCU: 0x1E890, offset: 0x1E890, size: 0x8, addend: 0x0, symName: __ZNSt3__110__function6__baseIFdddEED2Ev, symObjAddr: 0x8304, symBinAddr: 0x10000BB14, symSize: 0x14 }
  - { offsetInCU: 0x1E8BA, offset: 0x1E8BA, size: 0x8, addend: 0x0, symName: '__ZNSt3__110__function6__funcIZ17AdvectionSolutionNS_8functionIFddEEEdE3$_0NS_9allocatorIS5_EEFdddEED1Ev', symObjAddr: 0x8318, symBinAddr: 0x10000BB28, symSize: 0x2C }
  - { offsetInCU: 0x1E8E7, offset: 0x1E8E7, size: 0x8, addend: 0x0, symName: '__ZNSt3__110__function6__funcIZ17AdvectionSolutionNS_8functionIFddEEEdE3$_0NS_9allocatorIS5_EEFdddEED0Ev', symObjAddr: 0x8344, symBinAddr: 0x10000BB54, symSize: 0x30 }
  - { offsetInCU: 0x1E914, offset: 0x1E914, size: 0x8, addend: 0x0, symName: '__ZNKSt3__110__function6__funcIZ17AdvectionSolutionNS_8functionIFddEEEdE3$_0NS_9allocatorIS5_EEFdddEE7__cloneEv', symObjAddr: 0x8374, symBinAddr: 0x10000BB84, symSize: 0xFC }
  - { offsetInCU: 0x1E966, offset: 0x1E966, size: 0x8, addend: 0x0, symName: '__ZNKSt3__110__function6__funcIZ17AdvectionSolutionNS_8functionIFddEEEdE3$_0NS_9allocatorIS5_EEFdddEE7__cloneEPNS0_6__baseIS8_EE', symObjAddr: 0x8470, symBinAddr: 0x10000BC80, symSize: 0x58 }
  - { offsetInCU: 0x1E99D, offset: 0x1E99D, size: 0x8, addend: 0x0, symName: '__ZNSt3__110__function6__funcIZ17AdvectionSolutionNS_8functionIFddEEEdE3$_0NS_9allocatorIS5_EEFdddEE7destroyEv', symObjAddr: 0x84C8, symBinAddr: 0x10000BCD8, symSize: 0x28 }
  - { offsetInCU: 0x1E9C5, offset: 0x1E9C5, size: 0x8, addend: 0x0, symName: '__ZNSt3__110__function6__funcIZ17AdvectionSolutionNS_8functionIFddEEEdE3$_0NS_9allocatorIS5_EEFdddEE18destroy_deallocateEv', symObjAddr: 0x84F0, symBinAddr: 0x10000BD00, symSize: 0x58 }
  - { offsetInCU: 0x1EA08, offset: 0x1EA08, size: 0x8, addend: 0x0, symName: '__ZNSt3__110__function6__funcIZ17AdvectionSolutionNS_8functionIFddEEEdE3$_0NS_9allocatorIS5_EEFdddEEclEOdSA_', symObjAddr: 0x8548, symBinAddr: 0x10000BD58, symSize: 0x38 }
  - { offsetInCU: 0x1EA4E, offset: 0x1EA4E, size: 0x8, addend: 0x0, symName: '__ZNKSt3__110__function6__funcIZ17AdvectionSolutionNS_8functionIFddEEEdE3$_0NS_9allocatorIS5_EEFdddEE6targetERKSt9type_info', symObjAddr: 0x8580, symBinAddr: 0x10000BD90, symSize: 0x60 }
  - { offsetInCU: 0x1EA85, offset: 0x1EA85, size: 0x8, addend: 0x0, symName: '__ZNKSt3__110__function6__funcIZ17AdvectionSolutionNS_8functionIFddEEEdE3$_0NS_9allocatorIS5_EEFdddEE11target_typeEv', symObjAddr: 0x85E0, symBinAddr: 0x10000BDF0, symSize: 0x18 }
  - { offsetInCU: 0x1EAAD, offset: 0x1EAAD, size: 0x8, addend: 0x0, symName: __ZNSt3__110__function6__baseIFdddEED1Ev, symObjAddr: 0x85F8, symBinAddr: 0x10000BE08, symSize: 0x14 }
  - { offsetInCU: 0x1EAD7, offset: 0x1EAD7, size: 0x8, addend: 0x0, symName: __ZNSt3__110__function6__baseIFdddEED0Ev, symObjAddr: 0x860C, symBinAddr: 0x10000BE1C, symSize: 0xC }
  - { offsetInCU: 0x1EB01, offset: 0x1EB01, size: 0x8, addend: 0x0, symName: '__ZNSt3__110__function12__alloc_funcIZ17AdvectionSolutionNS_8functionIFddEEEdE3$_0NS_9allocatorIS5_EEFdddEEC2B8ue170006EOS5_OS7_', symObjAddr: 0x8618, symBinAddr: 0x10000BE28, symSize: 0x5C }
  - { offsetInCU: 0x1EB47, offset: 0x1EB47, size: 0x8, addend: 0x0, symName: '__ZNSt3__117__compressed_pairIZ17AdvectionSolutionNS_8functionIFddEEEdE3$_0NS_9allocatorIS4_EEEC1B8ue170006IJOS4_EJOS6_EEENS_21piecewise_construct_tENS_5tupleIJDpT_EEENSC_IJDpT0_EEE', symObjAddr: 0x86CC, symBinAddr: 0x10000BEDC, symSize: 0x3C }
  - { offsetInCU: 0x1EBB1, offset: 0x1EBB1, size: 0x8, addend: 0x0, symName: '__ZNSt3__15tupleIJOZ17AdvectionSolutionNS_8functionIFddEEEdE3$_0EEC1B8ue170006IJS4_ELi0EEEDpOT_', symObjAddr: 0x8708, symBinAddr: 0x10000BF18, symSize: 0x34 }
  - { offsetInCU: 0x1EBFB, offset: 0x1EBFB, size: 0x8, addend: 0x0, symName: '__ZNSt3__15tupleIJOZ17AdvectionSolutionNS_8functionIFddEEEdE3$_0EEC2B8ue170006IJS4_ELi0EEEDpOT_', symObjAddr: 0x873C, symBinAddr: 0x10000BF4C, symSize: 0x34 }
  - { offsetInCU: 0x1EC45, offset: 0x1EC45, size: 0x8, addend: 0x0, symName: '__ZNSt3__112__tuple_implINS_15__tuple_indicesIJLm0EEEEJOZ17AdvectionSolutionNS_8functionIFddEEEdE3$_0EEC1B8ue170006IJLm0EEJS7_EJEJEJS6_EEENS1_IJXspT_EEEENS_13__tuple_typesIJDpT0_EEENS1_IJXspT1_EEEENSB_IJDpT2_EEEDpOT3_', symObjAddr: 0x8770, symBinAddr: 0x10000BF80, symSize: 0x34 }
  - { offsetInCU: 0x1ECDA, offset: 0x1ECDA, size: 0x8, addend: 0x0, symName: '__ZNSt3__112__tuple_implINS_15__tuple_indicesIJLm0EEEEJOZ17AdvectionSolutionNS_8functionIFddEEEdE3$_0EEC2B8ue170006IJLm0EEJS7_EJEJEJS6_EEENS1_IJXspT_EEEENS_13__tuple_typesIJDpT0_EEENS1_IJXspT1_EEEENSB_IJDpT2_EEEDpOT3_', symObjAddr: 0x87A4, symBinAddr: 0x10000BFB4, symSize: 0x34 }
  - { offsetInCU: 0x1ED6F, offset: 0x1ED6F, size: 0x8, addend: 0x0, symName: '__ZNSt3__112__tuple_leafILm0EOZ17AdvectionSolutionNS_8functionIFddEEEdE3$_0Lb0EEC2B8ue170006IS4_vEEOT_', symObjAddr: 0x87D8, symBinAddr: 0x10000BFE8, symSize: 0x20 }
  - { offsetInCU: 0x1EDB2, offset: 0x1EDB2, size: 0x8, addend: 0x0, symName: '__ZNSt3__15tupleIJONS_9allocatorIZ17AdvectionSolutionNS_8functionIFddEEEdE3$_0EEEEC1B8ue170006IJS6_ELi0EEEDpOT_', symObjAddr: 0x87F8, symBinAddr: 0x10000C008, symSize: 0x34 }
  - { offsetInCU: 0x1EDFC, offset: 0x1EDFC, size: 0x8, addend: 0x0, symName: '__ZNSt3__15tupleIJONS_9allocatorIZ17AdvectionSolutionNS_8functionIFddEEEdE3$_0EEEEC2B8ue170006IJS6_ELi0EEEDpOT_', symObjAddr: 0x882C, symBinAddr: 0x10000C03C, symSize: 0x34 }
  - { offsetInCU: 0x1EE46, offset: 0x1EE46, size: 0x8, addend: 0x0, symName: '__ZNSt3__112__tuple_implINS_15__tuple_indicesIJLm0EEEEJONS_9allocatorIZ17AdvectionSolutionNS_8functionIFddEEEdE3$_0EEEEC1B8ue170006IJLm0EEJS9_EJEJEJS8_EEENS1_IJXspT_EEEENS_13__tuple_typesIJDpT0_EEENS1_IJXspT1_EEEENSD_IJDpT2_EEEDpOT3_', symObjAddr: 0x8860, symBinAddr: 0x10000C070, symSize: 0x34 }
  - { offsetInCU: 0x1EEDB, offset: 0x1EEDB, size: 0x8, addend: 0x0, symName: '__ZNSt3__112__tuple_implINS_15__tuple_indicesIJLm0EEEEJONS_9allocatorIZ17AdvectionSolutionNS_8functionIFddEEEdE3$_0EEEEC2B8ue170006IJLm0EEJS9_EJEJEJS8_EEENS1_IJXspT_EEEENS_13__tuple_typesIJDpT0_EEENS1_IJXspT1_EEEENSD_IJDpT2_EEEDpOT3_', symObjAddr: 0x8894, symBinAddr: 0x10000C0A4, symSize: 0x34 }
  - { offsetInCU: 0x1EF70, offset: 0x1EF70, size: 0x8, addend: 0x0, symName: '__ZNSt3__112__tuple_leafILm0EONS_9allocatorIZ17AdvectionSolutionNS_8functionIFddEEEdE3$_0EELb0EEC2B8ue170006IS6_vEEOT_', symObjAddr: 0x88C8, symBinAddr: 0x10000C0D8, symSize: 0x20 }
  - { offsetInCU: 0x1EFB3, offset: 0x1EFB3, size: 0x8, addend: 0x0, symName: '__ZNSt3__117__compressed_pairIZ17AdvectionSolutionNS_8functionIFddEEEdE3$_0NS_9allocatorIS4_EEEC2B8ue170006IJOS4_EJOS6_EEENS_21piecewise_construct_tENS_5tupleIJDpT_EEENSC_IJDpT0_EEE', symObjAddr: 0x88E8, symBinAddr: 0x10000C0F8, symSize: 0x7C }
  - { offsetInCU: 0x1F01D, offset: 0x1F01D, size: 0x8, addend: 0x0, symName: '__ZNSt3__122__compressed_pair_elemIZ17AdvectionSolutionNS_8functionIFddEEEdE3$_0Li0ELb0EEC2B8ue170006IJOS4_EJLm0EEEENS_21piecewise_construct_tENS_5tupleIJDpT_EEENS_15__tuple_indicesIJXspT0_EEEE', symObjAddr: 0x8964, symBinAddr: 0x10000C174, symSize: 0x44 }
  - { offsetInCU: 0x1F080, offset: 0x1F080, size: 0x8, addend: 0x0, symName: '__ZNSt3__122__compressed_pair_elemINS_9allocatorIZ17AdvectionSolutionNS_8functionIFddEEEdE3$_0EELi1ELb1EEC2B8ue170006IJOS6_EJLm0EEEENS_21piecewise_construct_tENS_5tupleIJDpT_EEENS_15__tuple_indicesIJXspT0_EEEE', symObjAddr: 0x89A8, symBinAddr: 0x10000C1B8, symSize: 0x38 }
  - { offsetInCU: 0x1F0E3, offset: 0x1F0E3, size: 0x8, addend: 0x0, symName: '__ZNSt3__122__compressed_pair_elemIZ17AdvectionSolutionNS_8functionIFddEEEdE3$_0Li0ELb0EED2Ev', symObjAddr: 0x89E0, symBinAddr: 0x10000C1F0, symSize: 0x2C }
  - { offsetInCU: 0x1F10F, offset: 0x1F10F, size: 0x8, addend: 0x0, symName: '__ZZ17AdvectionSolutionNSt3__18functionIFddEEEdEN3$_0C1EOS3_', symObjAddr: 0x8A30, symBinAddr: 0x10000C240, symSize: 0x34 }
  - { offsetInCU: 0x1F144, offset: 0x1F144, size: 0x8, addend: 0x0, symName: '__ZNSt3__112__tuple_leafILm0EOZ17AdvectionSolutionNS_8functionIFddEEEdE3$_0Lb0EE3getB8ue170006Ev', symObjAddr: 0x8A64, symBinAddr: 0x10000C274, symSize: 0x18 }
  - { offsetInCU: 0x1F16A, offset: 0x1F16A, size: 0x8, addend: 0x0, symName: '__ZZ17AdvectionSolutionNSt3__18functionIFddEEEdEN3$_0C2EOS3_', symObjAddr: 0x8A7C, symBinAddr: 0x10000C28C, symSize: 0x40 }
  - { offsetInCU: 0x1F19F, offset: 0x1F19F, size: 0x8, addend: 0x0, symName: __ZNSt3__18functionIFddEEC1EOS2_, symObjAddr: 0x8ABC, symBinAddr: 0x10000C2CC, symSize: 0x34 }
  - { offsetInCU: 0x1F1DA, offset: 0x1F1DA, size: 0x8, addend: 0x0, symName: __ZNSt3__18functionIFddEEC2EOS2_, symObjAddr: 0x8AF0, symBinAddr: 0x10000C300, symSize: 0x34 }
  - { offsetInCU: 0x1F215, offset: 0x1F215, size: 0x8, addend: 0x0, symName: __ZNSt3__110__function12__value_funcIFddEEC1B8ue170006EOS3_, symObjAddr: 0x8B24, symBinAddr: 0x10000C334, symSize: 0x34 }
  - { offsetInCU: 0x1F24E, offset: 0x1F24E, size: 0x8, addend: 0x0, symName: __ZNSt3__110__function12__value_funcIFddEEC2B8ue170006EOS3_, symObjAddr: 0x8B58, symBinAddr: 0x10000C368, symSize: 0xC4 }
  - { offsetInCU: 0x1F287, offset: 0x1F287, size: 0x8, addend: 0x0, symName: '__ZNSt3__112__tuple_leafILm0EONS_9allocatorIZ17AdvectionSolutionNS_8functionIFddEEEdE3$_0EELb0EE3getB8ue170006Ev', symObjAddr: 0x8C40, symBinAddr: 0x10000C450, symSize: 0x18 }
  - { offsetInCU: 0x1F2AD, offset: 0x1F2AD, size: 0x8, addend: 0x0, symName: '__ZNSt3__110__function6__funcIZ17AdvectionSolutionNS_8functionIFddEEEdE3$_0NS_9allocatorIS5_EEFdddEED2Ev', symObjAddr: 0x8C58, symBinAddr: 0x10000C468, symSize: 0x48 }
  - { offsetInCU: 0x1F2DA, offset: 0x1F2DA, size: 0x8, addend: 0x0, symName: '__ZNSt3__110__function12__alloc_funcIZ17AdvectionSolutionNS_8functionIFddEEEdE3$_0NS_9allocatorIS5_EEFdddEED1Ev', symObjAddr: 0x8CA0, symBinAddr: 0x10000C4B0, symSize: 0x2C }
  - { offsetInCU: 0x1F306, offset: 0x1F306, size: 0x8, addend: 0x0, symName: '__ZNSt3__110__function12__alloc_funcIZ17AdvectionSolutionNS_8functionIFddEEEdE3$_0NS_9allocatorIS5_EEFdddEED2Ev', symObjAddr: 0x8CCC, symBinAddr: 0x10000C4DC, symSize: 0x2C }
  - { offsetInCU: 0x1F332, offset: 0x1F332, size: 0x8, addend: 0x0, symName: '__ZNSt3__117__compressed_pairIZ17AdvectionSolutionNS_8functionIFddEEEdE3$_0NS_9allocatorIS4_EEED1Ev', symObjAddr: 0x8CF8, symBinAddr: 0x10000C508, symSize: 0x2C }
  - { offsetInCU: 0x1F35E, offset: 0x1F35E, size: 0x8, addend: 0x0, symName: '__ZNSt3__117__compressed_pairIZ17AdvectionSolutionNS_8functionIFddEEEdE3$_0NS_9allocatorIS4_EEED2Ev', symObjAddr: 0x8D24, symBinAddr: 0x10000C534, symSize: 0x2C }
  - { offsetInCU: 0x1F38A, offset: 0x1F38A, size: 0x8, addend: 0x0, symName: '__ZNKSt3__110__function12__alloc_funcIZ17AdvectionSolutionNS_8functionIFddEEEdE3$_0NS_9allocatorIS5_EEFdddEE15__get_allocatorB8ue170006Ev', symObjAddr: 0x8D50, symBinAddr: 0x10000C560, symSize: 0x24 }
  - { offsetInCU: 0x1F3DE, offset: 0x1F3DE, size: 0x8, addend: 0x0, symName: '__ZNSt3__110unique_ptrINS_10__function6__funcIZ17AdvectionSolutionNS_8functionIFddEEEdE3$_0NS_9allocatorIS6_EEFdddEEENS_22__allocator_destructorINS7_ISA_EEEEEC1B8ue170006ILb1EvEEPSA_NS_16__dependent_typeINS_27__unique_ptr_deleter_sfinaeISD_EEXT_EE20__good_rval_ref_typeE', symObjAddr: 0x8D74, symBinAddr: 0x10000C584, symSize: 0x3C }
  - { offsetInCU: 0x1F42F, offset: 0x1F42F, size: 0x8, addend: 0x0, symName: '__ZNKSt3__110unique_ptrINS_10__function6__funcIZ17AdvectionSolutionNS_8functionIFddEEEdE3$_0NS_9allocatorIS6_EEFdddEEENS_22__allocator_destructorINS7_ISA_EEEEE3getB8ue170006Ev', symObjAddr: 0x8DB0, symBinAddr: 0x10000C5C0, symSize: 0x28 }
  - { offsetInCU: 0x1F455, offset: 0x1F455, size: 0x8, addend: 0x0, symName: '__ZNKSt3__110__function12__alloc_funcIZ17AdvectionSolutionNS_8functionIFddEEEdE3$_0NS_9allocatorIS5_EEFdddEE8__targetB8ue170006Ev', symObjAddr: 0x8DD8, symBinAddr: 0x10000C5E8, symSize: 0x24 }
  - { offsetInCU: 0x1F481, offset: 0x1F481, size: 0x8, addend: 0x0, symName: '__ZNSt3__19allocatorIZ17AdvectionSolutionNS_8functionIFddEEEdE3$_0EC1B8ue170006INS_10__function6__funcIS4_S5_FdddEEEEERKNS0_IT_EE', symObjAddr: 0x8DFC, symBinAddr: 0x10000C60C, symSize: 0x34 }
  - { offsetInCU: 0x1F4BE, offset: 0x1F4BE, size: 0x8, addend: 0x0, symName: '__ZNSt3__110__function6__funcIZ17AdvectionSolutionNS_8functionIFddEEEdE3$_0NS_9allocatorIS5_EEFdddEEC1B8ue170006ERKS5_OS7_', symObjAddr: 0x8E30, symBinAddr: 0x10000C640, symSize: 0x3C }
  - { offsetInCU: 0x1F506, offset: 0x1F506, size: 0x8, addend: 0x0, symName: '__ZNSt3__110unique_ptrINS_10__function6__funcIZ17AdvectionSolutionNS_8functionIFddEEEdE3$_0NS_9allocatorIS6_EEFdddEEENS_22__allocator_destructorINS7_ISA_EEEEE7releaseB8ue170006Ev', symObjAddr: 0x8E6C, symBinAddr: 0x10000C67C, symSize: 0x44 }
  - { offsetInCU: 0x1F53B, offset: 0x1F53B, size: 0x8, addend: 0x0, symName: '__ZNSt3__110unique_ptrINS_10__function6__funcIZ17AdvectionSolutionNS_8functionIFddEEEdE3$_0NS_9allocatorIS6_EEFdddEEENS_22__allocator_destructorINS7_ISA_EEEEED1B8ue170006Ev', symObjAddr: 0x8EB0, symBinAddr: 0x10000C6C0, symSize: 0x2C }
  - { offsetInCU: 0x1F565, offset: 0x1F565, size: 0x8, addend: 0x0, symName: '__ZNKSt3__117__compressed_pairIZ17AdvectionSolutionNS_8functionIFddEEEdE3$_0NS_9allocatorIS4_EEE6secondB8ue170006Ev', symObjAddr: 0x8EDC, symBinAddr: 0x10000C6EC, symSize: 0x24 }
  - { offsetInCU: 0x1F58B, offset: 0x1F58B, size: 0x8, addend: 0x0, symName: '__ZNKSt3__122__compressed_pair_elemINS_9allocatorIZ17AdvectionSolutionNS_8functionIFddEEEdE3$_0EELi1ELb1EE5__getB8ue170006Ev', symObjAddr: 0x8F00, symBinAddr: 0x10000C710, symSize: 0x14 }
  - { offsetInCU: 0x1F5B1, offset: 0x1F5B1, size: 0x8, addend: 0x0, symName: '__ZNSt3__110unique_ptrINS_10__function6__funcIZ17AdvectionSolutionNS_8functionIFddEEEdE3$_0NS_9allocatorIS6_EEFdddEEENS_22__allocator_destructorINS7_ISA_EEEEEC2B8ue170006ILb1EvEEPSA_NS_16__dependent_typeINS_27__unique_ptr_deleter_sfinaeISD_EEXT_EE20__good_rval_ref_typeE', symObjAddr: 0x8F14, symBinAddr: 0x10000C724, symSize: 0x48 }
  - { offsetInCU: 0x1F602, offset: 0x1F602, size: 0x8, addend: 0x0, symName: '__ZNKSt3__117__compressed_pairIZ17AdvectionSolutionNS_8functionIFddEEEdE3$_0NS_9allocatorIS4_EEE5firstB8ue170006Ev', symObjAddr: 0x8F5C, symBinAddr: 0x10000C76C, symSize: 0x24 }
  - { offsetInCU: 0x1F628, offset: 0x1F628, size: 0x8, addend: 0x0, symName: '__ZNKSt3__122__compressed_pair_elemIZ17AdvectionSolutionNS_8functionIFddEEEdE3$_0Li0ELb0EE5__getB8ue170006Ev', symObjAddr: 0x8F80, symBinAddr: 0x10000C790, symSize: 0x14 }
  - { offsetInCU: 0x1F64E, offset: 0x1F64E, size: 0x8, addend: 0x0, symName: '__ZNSt3__19allocatorIZ17AdvectionSolutionNS_8functionIFddEEEdE3$_0EC2B8ue170006INS_10__function6__funcIS4_S5_FdddEEEEERKNS0_IT_EE', symObjAddr: 0x8F94, symBinAddr: 0x10000C7A4, symSize: 0x30 }
  - { offsetInCU: 0x1F68B, offset: 0x1F68B, size: 0x8, addend: 0x0, symName: '__ZNSt3__110__function6__funcIZ17AdvectionSolutionNS_8functionIFddEEEdE3$_0NS_9allocatorIS5_EEFdddEEC2B8ue170006ERKS5_OS7_', symObjAddr: 0x8FC4, symBinAddr: 0x10000C7D4, symSize: 0x88 }
  - { offsetInCU: 0x1F6D3, offset: 0x1F6D3, size: 0x8, addend: 0x0, symName: '__ZNSt3__110__function12__alloc_funcIZ17AdvectionSolutionNS_8functionIFddEEEdE3$_0NS_9allocatorIS5_EEFdddEEC1B8ue170006ERKS5_OS7_', symObjAddr: 0x904C, symBinAddr: 0x10000C85C, symSize: 0x3C }
  - { offsetInCU: 0x1F719, offset: 0x1F719, size: 0x8, addend: 0x0, symName: '__ZNSt3__110__function12__alloc_funcIZ17AdvectionSolutionNS_8functionIFddEEEdE3$_0NS_9allocatorIS5_EEFdddEEC2B8ue170006ERKS5_OS7_', symObjAddr: 0x9088, symBinAddr: 0x10000C898, symSize: 0x5C }
  - { offsetInCU: 0x1F75F, offset: 0x1F75F, size: 0x8, addend: 0x0, symName: '__ZNSt3__117__compressed_pairIZ17AdvectionSolutionNS_8functionIFddEEEdE3$_0NS_9allocatorIS4_EEEC1B8ue170006IJRKS4_EJOS6_EEENS_21piecewise_construct_tENS_5tupleIJDpT_EEENSD_IJDpT0_EEE', symObjAddr: 0x9110, symBinAddr: 0x10000C920, symSize: 0x3C }
  - { offsetInCU: 0x1F7C9, offset: 0x1F7C9, size: 0x8, addend: 0x0, symName: '__ZNSt3__15tupleIJRKZ17AdvectionSolutionNS_8functionIFddEEEdE3$_0EEC1B8ue170006INS_4_AndELi0EEES6_', symObjAddr: 0x914C, symBinAddr: 0x10000C95C, symSize: 0x34 }
  - { offsetInCU: 0x1F812, offset: 0x1F812, size: 0x8, addend: 0x0, symName: '__ZNSt3__15tupleIJRKZ17AdvectionSolutionNS_8functionIFddEEEdE3$_0EEC2B8ue170006INS_4_AndELi0EEES6_', symObjAddr: 0x9180, symBinAddr: 0x10000C990, symSize: 0x34 }
  - { offsetInCU: 0x1F85B, offset: 0x1F85B, size: 0x8, addend: 0x0, symName: '__ZNSt3__112__tuple_implINS_15__tuple_indicesIJLm0EEEEJRKZ17AdvectionSolutionNS_8functionIFddEEEdE3$_0EEC1B8ue170006IJLm0EEJS8_EJEJEJS8_EEENS1_IJXspT_EEEENS_13__tuple_typesIJDpT0_EEENS1_IJXspT1_EEEENSC_IJDpT2_EEEDpOT3_', symObjAddr: 0x91B4, symBinAddr: 0x10000C9C4, symSize: 0x34 }
  - { offsetInCU: 0x1F8F0, offset: 0x1F8F0, size: 0x8, addend: 0x0, symName: '__ZNSt3__112__tuple_implINS_15__tuple_indicesIJLm0EEEEJRKZ17AdvectionSolutionNS_8functionIFddEEEdE3$_0EEC2B8ue170006IJLm0EEJS8_EJEJEJS8_EEENS1_IJXspT_EEEENS_13__tuple_typesIJDpT0_EEENS1_IJXspT1_EEEENSC_IJDpT2_EEEDpOT3_', symObjAddr: 0x91E8, symBinAddr: 0x10000C9F8, symSize: 0x34 }
  - { offsetInCU: 0x1F985, offset: 0x1F985, size: 0x8, addend: 0x0, symName: '__ZNSt3__112__tuple_leafILm0ERKZ17AdvectionSolutionNS_8functionIFddEEEdE3$_0Lb0EEC2B8ue170006IS6_vEEOT_', symObjAddr: 0x921C, symBinAddr: 0x10000CA2C, symSize: 0x20 }
  - { offsetInCU: 0x1F9C8, offset: 0x1F9C8, size: 0x8, addend: 0x0, symName: '__ZNSt3__117__compressed_pairIZ17AdvectionSolutionNS_8functionIFddEEEdE3$_0NS_9allocatorIS4_EEEC2B8ue170006IJRKS4_EJOS6_EEENS_21piecewise_construct_tENS_5tupleIJDpT_EEENSD_IJDpT0_EEE', symObjAddr: 0x923C, symBinAddr: 0x10000CA4C, symSize: 0x54 }
  - { offsetInCU: 0x1FA32, offset: 0x1FA32, size: 0x8, addend: 0x0, symName: '__ZNSt3__122__compressed_pair_elemIZ17AdvectionSolutionNS_8functionIFddEEEdE3$_0Li0ELb0EEC2B8ue170006IJRKS4_EJLm0EEEENS_21piecewise_construct_tENS_5tupleIJDpT_EEENS_15__tuple_indicesIJXspT0_EEEE', symObjAddr: 0x9290, symBinAddr: 0x10000CAA0, symSize: 0x44 }
  - { offsetInCU: 0x1FA95, offset: 0x1FA95, size: 0x8, addend: 0x0, symName: '__ZZ17AdvectionSolutionNSt3__18functionIFddEEEdEN3$_0C1ERKS3_', symObjAddr: 0x92F8, symBinAddr: 0x10000CB08, symSize: 0x34 }
  - { offsetInCU: 0x1FACA, offset: 0x1FACA, size: 0x8, addend: 0x0, symName: '__ZNSt3__112__tuple_leafILm0ERKZ17AdvectionSolutionNS_8functionIFddEEEdE3$_0Lb0EE3getB8ue170006Ev', symObjAddr: 0x932C, symBinAddr: 0x10000CB3C, symSize: 0x18 }
  - { offsetInCU: 0x1FAF0, offset: 0x1FAF0, size: 0x8, addend: 0x0, symName: '__ZZ17AdvectionSolutionNSt3__18functionIFddEEEdEN3$_0C2ERKS3_', symObjAddr: 0x9344, symBinAddr: 0x10000CB54, symSize: 0x40 }
  - { offsetInCU: 0x1FB25, offset: 0x1FB25, size: 0x8, addend: 0x0, symName: '__ZNSt3__117__compressed_pairIPNS_10__function6__funcIZ17AdvectionSolutionNS_8functionIFddEEEdE3$_0NS_9allocatorIS6_EEFdddEEENS_22__allocator_destructorINS7_ISA_EEEEE5firstB8ue170006Ev', symObjAddr: 0x9384, symBinAddr: 0x10000CB94, symSize: 0x24 }
  - { offsetInCU: 0x1FB4B, offset: 0x1FB4B, size: 0x8, addend: 0x0, symName: '__ZNSt3__122__compressed_pair_elemIPNS_10__function6__funcIZ17AdvectionSolutionNS_8functionIFddEEEdE3$_0NS_9allocatorIS6_EEFdddEEELi0ELb0EE5__getB8ue170006Ev', symObjAddr: 0x93A8, symBinAddr: 0x10000CBB8, symSize: 0x14 }
  - { offsetInCU: 0x1FB71, offset: 0x1FB71, size: 0x8, addend: 0x0, symName: '__ZNSt3__110unique_ptrINS_10__function6__funcIZ17AdvectionSolutionNS_8functionIFddEEEdE3$_0NS_9allocatorIS6_EEFdddEEENS_22__allocator_destructorINS7_ISA_EEEEED2B8ue170006Ev', symObjAddr: 0x93BC, symBinAddr: 0x10000CBCC, symSize: 0x30 }
  - { offsetInCU: 0x1FB9B, offset: 0x1FB9B, size: 0x8, addend: 0x0, symName: '__ZNSt3__110unique_ptrINS_10__function6__funcIZ17AdvectionSolutionNS_8functionIFddEEEdE3$_0NS_9allocatorIS6_EEFdddEEENS_22__allocator_destructorINS7_ISA_EEEEE5resetB8ue170006EPSA_', symObjAddr: 0x93EC, symBinAddr: 0x10000CBFC, symSize: 0x78 }
  - { offsetInCU: 0x1FBDF, offset: 0x1FBDF, size: 0x8, addend: 0x0, symName: '__ZNSt3__117__compressed_pairIPNS_10__function6__funcIZ17AdvectionSolutionNS_8functionIFddEEEdE3$_0NS_9allocatorIS6_EEFdddEEENS_22__allocator_destructorINS7_ISA_EEEEE6secondB8ue170006Ev', symObjAddr: 0x9464, symBinAddr: 0x10000CC74, symSize: 0x28 }
  - { offsetInCU: 0x1FC05, offset: 0x1FC05, size: 0x8, addend: 0x0, symName: '__ZNSt3__122__allocator_destructorINS_9allocatorINS_10__function6__funcIZ17AdvectionSolutionNS_8functionIFddEEEdE3$_0NS1_IS7_EEFdddEEEEEEclB8ue170006EPSA_', symObjAddr: 0x948C, symBinAddr: 0x10000CC9C, symSize: 0x34 }
  - { offsetInCU: 0x1FC39, offset: 0x1FC39, size: 0x8, addend: 0x0, symName: '__ZNSt3__122__compressed_pair_elemINS_22__allocator_destructorINS_9allocatorINS_10__function6__funcIZ17AdvectionSolutionNS_8functionIFddEEEdE3$_0NS2_IS8_EEFdddEEEEEEELi1ELb0EE5__getB8ue170006Ev', symObjAddr: 0x94C0, symBinAddr: 0x10000CCD0, symSize: 0x14 }
  - { offsetInCU: 0x1FC5F, offset: 0x1FC5F, size: 0x8, addend: 0x0, symName: '__ZNSt3__116allocator_traitsINS_9allocatorINS_10__function6__funcIZ17AdvectionSolutionNS_8functionIFddEEEdE3$_0NS1_IS7_EEFdddEEEEEE10deallocateB8ue170006ERSB_PSA_m', symObjAddr: 0x94D4, symBinAddr: 0x10000CCE4, symSize: 0x34 }
  - { offsetInCU: 0x1FCA1, offset: 0x1FCA1, size: 0x8, addend: 0x0, symName: '__ZNSt3__19allocatorINS_10__function6__funcIZ17AdvectionSolutionNS_8functionIFddEEEdE3$_0NS0_IS6_EEFdddEEEE10deallocateB8ue170006EPS9_m', symObjAddr: 0x9508, symBinAddr: 0x10000CD18, symSize: 0x44 }
  - { offsetInCU: 0x1FCE3, offset: 0x1FCE3, size: 0x8, addend: 0x0, symName: '__ZNSt3__110__function6__funcIZ17AdvectionSolutionNS_8functionIFddEEEdE3$_0NS_9allocatorIS5_EEFdddEEC1B8ue170006ERKS5_RKS7_', symObjAddr: 0x954C, symBinAddr: 0x10000CD5C, symSize: 0x3C }
  - { offsetInCU: 0x1FD2B, offset: 0x1FD2B, size: 0x8, addend: 0x0, symName: '__ZNSt3__110__function6__funcIZ17AdvectionSolutionNS_8functionIFddEEEdE3$_0NS_9allocatorIS5_EEFdddEEC2B8ue170006ERKS5_RKS7_', symObjAddr: 0x9588, symBinAddr: 0x10000CD98, symSize: 0x88 }
  - { offsetInCU: 0x1FD73, offset: 0x1FD73, size: 0x8, addend: 0x0, symName: '__ZNSt3__110__function12__alloc_funcIZ17AdvectionSolutionNS_8functionIFddEEEdE3$_0NS_9allocatorIS5_EEFdddEEC1B8ue170006ERKS5_RKS7_', symObjAddr: 0x9610, symBinAddr: 0x10000CE20, symSize: 0x3C }
  - { offsetInCU: 0x1FDB9, offset: 0x1FDB9, size: 0x8, addend: 0x0, symName: '__ZNSt3__110__function12__alloc_funcIZ17AdvectionSolutionNS_8functionIFddEEEdE3$_0NS_9allocatorIS5_EEFdddEEC2B8ue170006ERKS5_RKS7_', symObjAddr: 0x964C, symBinAddr: 0x10000CE5C, symSize: 0x5C }
  - { offsetInCU: 0x1FDFF, offset: 0x1FDFF, size: 0x8, addend: 0x0, symName: '__ZNSt3__117__compressed_pairIZ17AdvectionSolutionNS_8functionIFddEEEdE3$_0NS_9allocatorIS4_EEEC1B8ue170006IJRKS4_EJRKS6_EEENS_21piecewise_construct_tENS_5tupleIJDpT_EEENSE_IJDpT0_EEE', symObjAddr: 0x96D4, symBinAddr: 0x10000CEE4, symSize: 0x3C }
  - { offsetInCU: 0x1FE69, offset: 0x1FE69, size: 0x8, addend: 0x0, symName: '__ZNSt3__15tupleIJRKNS_9allocatorIZ17AdvectionSolutionNS_8functionIFddEEEdE3$_0EEEEC1B8ue170006INS_4_AndELi0EEES8_', symObjAddr: 0x9710, symBinAddr: 0x10000CF20, symSize: 0x34 }
  - { offsetInCU: 0x1FEB2, offset: 0x1FEB2, size: 0x8, addend: 0x0, symName: '__ZNSt3__15tupleIJRKNS_9allocatorIZ17AdvectionSolutionNS_8functionIFddEEEdE3$_0EEEEC2B8ue170006INS_4_AndELi0EEES8_', symObjAddr: 0x9744, symBinAddr: 0x10000CF54, symSize: 0x34 }
  - { offsetInCU: 0x1FEFB, offset: 0x1FEFB, size: 0x8, addend: 0x0, symName: '__ZNSt3__112__tuple_implINS_15__tuple_indicesIJLm0EEEEJRKNS_9allocatorIZ17AdvectionSolutionNS_8functionIFddEEEdE3$_0EEEEC1B8ue170006IJLm0EEJSA_EJEJEJSA_EEENS1_IJXspT_EEEENS_13__tuple_typesIJDpT0_EEENS1_IJXspT1_EEEENSE_IJDpT2_EEEDpOT3_', symObjAddr: 0x9778, symBinAddr: 0x10000CF88, symSize: 0x34 }
  - { offsetInCU: 0x1FF90, offset: 0x1FF90, size: 0x8, addend: 0x0, symName: '__ZNSt3__112__tuple_implINS_15__tuple_indicesIJLm0EEEEJRKNS_9allocatorIZ17AdvectionSolutionNS_8functionIFddEEEdE3$_0EEEEC2B8ue170006IJLm0EEJSA_EJEJEJSA_EEENS1_IJXspT_EEEENS_13__tuple_typesIJDpT0_EEENS1_IJXspT1_EEEENSE_IJDpT2_EEEDpOT3_', symObjAddr: 0x97AC, symBinAddr: 0x10000CFBC, symSize: 0x34 }
  - { offsetInCU: 0x20025, offset: 0x20025, size: 0x8, addend: 0x0, symName: '__ZNSt3__112__tuple_leafILm0ERKNS_9allocatorIZ17AdvectionSolutionNS_8functionIFddEEEdE3$_0EELb0EEC2B8ue170006IS8_vEEOT_', symObjAddr: 0x97E0, symBinAddr: 0x10000CFF0, symSize: 0x20 }
  - { offsetInCU: 0x20068, offset: 0x20068, size: 0x8, addend: 0x0, symName: '__ZNSt3__117__compressed_pairIZ17AdvectionSolutionNS_8functionIFddEEEdE3$_0NS_9allocatorIS4_EEEC2B8ue170006IJRKS4_EJRKS6_EEENS_21piecewise_construct_tENS_5tupleIJDpT_EEENSE_IJDpT0_EEE', symObjAddr: 0x9800, symBinAddr: 0x10000D010, symSize: 0x7C }
  - { offsetInCU: 0x200D2, offset: 0x200D2, size: 0x8, addend: 0x0, symName: '__ZNSt3__122__compressed_pair_elemINS_9allocatorIZ17AdvectionSolutionNS_8functionIFddEEEdE3$_0EELi1ELb1EEC2B8ue170006IJRKS6_EJLm0EEEENS_21piecewise_construct_tENS_5tupleIJDpT_EEENS_15__tuple_indicesIJXspT0_EEEE', symObjAddr: 0x987C, symBinAddr: 0x10000D08C, symSize: 0x38 }
  - { offsetInCU: 0x20135, offset: 0x20135, size: 0x8, addend: 0x0, symName: '__ZNSt3__112__tuple_leafILm0ERKNS_9allocatorIZ17AdvectionSolutionNS_8functionIFddEEEdE3$_0EELb0EE3getB8ue170006Ev', symObjAddr: 0x98D8, symBinAddr: 0x10000D0E8, symSize: 0x18 }
  - { offsetInCU: 0x2015B, offset: 0x2015B, size: 0x8, addend: 0x0, symName: '__ZNSt3__110__function12__alloc_funcIZ17AdvectionSolutionNS_8functionIFddEEEdE3$_0NS_9allocatorIS5_EEFdddEE7destroyB8ue170006Ev', symObjAddr: 0x98F0, symBinAddr: 0x10000D100, symSize: 0x24 }
  - { offsetInCU: 0x20181, offset: 0x20181, size: 0x8, addend: 0x0, symName: '__ZNSt3__110__function12__alloc_funcIZ17AdvectionSolutionNS_8functionIFddEEEdE3$_0NS_9allocatorIS5_EEFdddEEclB8ue170006EOdSA_', symObjAddr: 0x9914, symBinAddr: 0x10000D124, symSize: 0x38 }
  - { offsetInCU: 0x201C3, offset: 0x201C3, size: 0x8, addend: 0x0, symName: '__ZNSt3__128__invoke_void_return_wrapperIdLb0EE6__callB8ue170006IJRZ17AdvectionSolutionNS_8functionIFddEEEdE3$_0ddEEEdDpOT_', symObjAddr: 0x994C, symBinAddr: 0x10000D15C, symSize: 0x34 }
  - { offsetInCU: 0x2021A, offset: 0x2021A, size: 0x8, addend: 0x0, symName: '__ZNSt3__117__compressed_pairIZ17AdvectionSolutionNS_8functionIFddEEEdE3$_0NS_9allocatorIS4_EEE5firstB8ue170006Ev', symObjAddr: 0x9980, symBinAddr: 0x10000D190, symSize: 0x24 }
  - { offsetInCU: 0x20246, offset: 0x20246, size: 0x8, addend: 0x0, symName: '__ZZ17AdvectionSolutionNSt3__18functionIFddEEEdENK3$_0clEdd', symObjAddr: 0x99E0, symBinAddr: 0x10000D1F0, symSize: 0x3C }
  - { offsetInCU: 0x2028C, offset: 0x2028C, size: 0x8, addend: 0x0, symName: '__ZNSt3__122__compressed_pair_elemIZ17AdvectionSolutionNS_8functionIFddEEEdE3$_0Li0ELb0EE5__getB8ue170006Ev', symObjAddr: 0x9A1C, symBinAddr: 0x10000D22C, symSize: 0x14 }
  - { offsetInCU: 0x202E8, offset: 0x202E8, size: 0x8, addend: 0x0, symName: __ZNKSt9type_infoeqB8ue170006ERKS_, symObjAddr: 0x9A30, symBinAddr: 0x10000D240, symSize: 0xDC }
  - { offsetInCU: 0x20386, offset: 0x20386, size: 0x8, addend: 0x0, symName: __ZNSt27__type_info_implementations30__non_unique_arm_rtti_bit_impl21__is_type_name_uniqueB8ue170006Em, symObjAddr: 0x9B0C, symBinAddr: 0x10000D31C, symSize: 0x20 }
  - { offsetInCU: 0x203AA, offset: 0x203AA, size: 0x8, addend: 0x0, symName: '__ZNSt3__110unique_ptrINS_10__function6__baseIFdddEEENS_22__allocator_destructorINS_9allocatorINS1_6__funcIZ17AdvectionSolutionNS_8functionIFddEEEdE3$_0NS6_ISB_EES3_EEEEEEED2B8ue170006Ev', symObjAddr: 0x9B2C, symBinAddr: 0x10000D33C, symSize: 0x30 }
  - { offsetInCU: 0x203D4, offset: 0x203D4, size: 0x8, addend: 0x0, symName: '__ZNSt3__110unique_ptrINS_10__function6__baseIFdddEEENS_22__allocator_destructorINS_9allocatorINS1_6__funcIZ17AdvectionSolutionNS_8functionIFddEEEdE3$_0NS6_ISB_EES3_EEEEEEE5resetB8ue170006EPSD_', symObjAddr: 0x9B5C, symBinAddr: 0x10000D36C, symSize: 0x78 }
  - { offsetInCU: 0x20418, offset: 0x20418, size: 0x8, addend: 0x0, symName: __ZNSt3__112basic_stringIcNS_11char_traitsIcEENS_9allocatorIcEEEC2B8ue170006ILi0EEEPKc, symObjAddr: 0x9BD4, symBinAddr: 0x10000D3E4, symSize: 0x58 }
  - { offsetInCU: 0x20457, offset: 0x20457, size: 0x8, addend: 0x0, symName: __ZNSt3__18functionIFddEEC2IPS1_vEET_, symObjAddr: 0x9C2C, symBinAddr: 0x10000D43C, symSize: 0x38 }
  - { offsetInCU: 0x2049C, offset: 0x2049C, size: 0x8, addend: 0x0, symName: __ZNSt3__110__function12__value_funcIFddEEC1B8ue170006IPS2_vEEOT_, symObjAddr: 0x9C64, symBinAddr: 0x10000D474, symSize: 0x50 }
  - { offsetInCU: 0x204DF, offset: 0x204DF, size: 0x8, addend: 0x0, symName: __ZNSt3__19allocatorIPFddEEC1B8ue170006Ev, symObjAddr: 0x9CB4, symBinAddr: 0x10000D4C4, symSize: 0x2C }
  - { offsetInCU: 0x20509, offset: 0x20509, size: 0x8, addend: 0x0, symName: __ZNSt3__110__function12__value_funcIFddEEC1B8ue170006IPS2_NS_9allocatorIS5_EEEEOT_RKT0_, symObjAddr: 0x9CE0, symBinAddr: 0x10000D4F0, symSize: 0x3C }
  - { offsetInCU: 0x20563, offset: 0x20563, size: 0x8, addend: 0x0, symName: __ZNSt3__19allocatorIPFddEEC2B8ue170006Ev, symObjAddr: 0x9D1C, symBinAddr: 0x10000D52C, symSize: 0x2C }
  - { offsetInCU: 0x2058D, offset: 0x2058D, size: 0x8, addend: 0x0, symName: __ZNSt3__116__non_trivial_ifILb1ENS_9allocatorIPFddEEEEC2B8ue170006Ev, symObjAddr: 0x9D48, symBinAddr: 0x10000D558, symSize: 0x14 }
  - { offsetInCU: 0x205B7, offset: 0x205B7, size: 0x8, addend: 0x0, symName: __ZNSt3__110__function12__value_funcIFddEEC2B8ue170006IPS2_NS_9allocatorIS5_EEEEOT_RKT0_, symObjAddr: 0x9D5C, symBinAddr: 0x10000D56C, symSize: 0x98 }
  - { offsetInCU: 0x20664, offset: 0x20664, size: 0x8, addend: 0x0, symName: __ZNSt3__19allocatorINS_10__function6__funcIPFddENS0_IS4_EES3_EEEC1B8ue170006IS4_EERKNS0_IT_EE, symObjAddr: 0x9E14, symBinAddr: 0x10000D624, symSize: 0x34 }
  - { offsetInCU: 0x206A7, offset: 0x206A7, size: 0x8, addend: 0x0, symName: __ZNSt3__19allocatorIPFddEEC1B8ue170006INS_10__function6__funcIS2_S3_S1_EEEERKNS0_IT_EE, symObjAddr: 0x9E48, symBinAddr: 0x10000D658, symSize: 0x34 }
  - { offsetInCU: 0x206E4, offset: 0x206E4, size: 0x8, addend: 0x0, symName: __ZNSt3__110__function6__funcIPFddENS_9allocatorIS3_EES2_EC1B8ue170006EOS3_OS5_, symObjAddr: 0x9E7C, symBinAddr: 0x10000D68C, symSize: 0x3C }
  - { offsetInCU: 0x2072C, offset: 0x2072C, size: 0x8, addend: 0x0, symName: __ZNSt3__19allocatorINS_10__function6__funcIPFddENS0_IS4_EES3_EEEC2B8ue170006IS4_EERKNS0_IT_EE, symObjAddr: 0x9EB8, symBinAddr: 0x10000D6C8, symSize: 0x30 }
  - { offsetInCU: 0x20769, offset: 0x20769, size: 0x8, addend: 0x0, symName: __ZNSt3__116__non_trivial_ifILb1ENS_9allocatorINS_10__function6__funcIPFddENS1_IS5_EES4_EEEEEC2B8ue170006Ev, symObjAddr: 0x9EE8, symBinAddr: 0x10000D6F8, symSize: 0x14 }
  - { offsetInCU: 0x20793, offset: 0x20793, size: 0x8, addend: 0x0, symName: __ZNSt3__19allocatorIPFddEEC2B8ue170006INS_10__function6__funcIS2_S3_S1_EEEERKNS0_IT_EE, symObjAddr: 0x9EFC, symBinAddr: 0x10000D70C, symSize: 0x30 }
  - { offsetInCU: 0x207D0, offset: 0x207D0, size: 0x8, addend: 0x0, symName: __ZNSt3__110__function6__funcIPFddENS_9allocatorIS3_EES2_EC2B8ue170006EOS3_OS5_, symObjAddr: 0x9F2C, symBinAddr: 0x10000D73C, symSize: 0x88 }
  - { offsetInCU: 0x20818, offset: 0x20818, size: 0x8, addend: 0x0, symName: __ZNSt3__110__function6__baseIFddEEC2B8ue170006Ev, symObjAddr: 0x9FB4, symBinAddr: 0x10000D7C4, symSize: 0x24 }
  - { offsetInCU: 0x20842, offset: 0x20842, size: 0x8, addend: 0x0, symName: __ZNSt3__110__function12__alloc_funcIPFddENS_9allocatorIS3_EES2_EC1B8ue170006EOS3_OS5_, symObjAddr: 0x9FD8, symBinAddr: 0x10000D7E8, symSize: 0x3C }
  - { offsetInCU: 0x20888, offset: 0x20888, size: 0x8, addend: 0x0, symName: __ZNSt3__110__function6__baseIFddEED2Ev, symObjAddr: 0xA014, symBinAddr: 0x10000D824, symSize: 0x14 }
  - { offsetInCU: 0x208B2, offset: 0x208B2, size: 0x8, addend: 0x0, symName: __ZNSt3__110__function6__funcIPFddENS_9allocatorIS3_EES2_ED1Ev, symObjAddr: 0xA028, symBinAddr: 0x10000D838, symSize: 0x2C }
  - { offsetInCU: 0x208DF, offset: 0x208DF, size: 0x8, addend: 0x0, symName: __ZNSt3__110__function6__funcIPFddENS_9allocatorIS3_EES2_ED0Ev, symObjAddr: 0xA054, symBinAddr: 0x10000D864, symSize: 0x30 }
  - { offsetInCU: 0x2090C, offset: 0x2090C, size: 0x8, addend: 0x0, symName: __ZNKSt3__110__function6__funcIPFddENS_9allocatorIS3_EES2_E7__cloneEv, symObjAddr: 0xA084, symBinAddr: 0x10000D894, symSize: 0xFC }
  - { offsetInCU: 0x2095E, offset: 0x2095E, size: 0x8, addend: 0x0, symName: __ZNKSt3__110__function6__funcIPFddENS_9allocatorIS3_EES2_E7__cloneEPNS0_6__baseIS2_EE, symObjAddr: 0xA180, symBinAddr: 0x10000D990, symSize: 0x58 }
  - { offsetInCU: 0x20995, offset: 0x20995, size: 0x8, addend: 0x0, symName: __ZNSt3__110__function6__funcIPFddENS_9allocatorIS3_EES2_E7destroyEv, symObjAddr: 0xA1D8, symBinAddr: 0x10000D9E8, symSize: 0x28 }
  - { offsetInCU: 0x209BD, offset: 0x209BD, size: 0x8, addend: 0x0, symName: __ZNSt3__110__function6__funcIPFddENS_9allocatorIS3_EES2_E18destroy_deallocateEv, symObjAddr: 0xA200, symBinAddr: 0x10000DA10, symSize: 0x58 }
  - { offsetInCU: 0x20A00, offset: 0x20A00, size: 0x8, addend: 0x0, symName: __ZNSt3__110__function6__funcIPFddENS_9allocatorIS3_EES2_EclEOd, symObjAddr: 0xA258, symBinAddr: 0x10000DA68, symSize: 0x30 }
  - { offsetInCU: 0x20A37, offset: 0x20A37, size: 0x8, addend: 0x0, symName: __ZNKSt3__110__function6__funcIPFddENS_9allocatorIS3_EES2_E6targetERKSt9type_info, symObjAddr: 0xA288, symBinAddr: 0x10000DA98, symSize: 0x60 }
  - { offsetInCU: 0x20A6E, offset: 0x20A6E, size: 0x8, addend: 0x0, symName: __ZNKSt3__110__function6__funcIPFddENS_9allocatorIS3_EES2_E11target_typeEv, symObjAddr: 0xA2E8, symBinAddr: 0x10000DAF8, symSize: 0x18 }
  - { offsetInCU: 0x20A96, offset: 0x20A96, size: 0x8, addend: 0x0, symName: __ZNSt3__110__function6__baseIFddEED1Ev, symObjAddr: 0xA300, symBinAddr: 0x10000DB10, symSize: 0x14 }
  - { offsetInCU: 0x20AC0, offset: 0x20AC0, size: 0x8, addend: 0x0, symName: __ZNSt3__110__function6__baseIFddEED0Ev, symObjAddr: 0xA314, symBinAddr: 0x10000DB24, symSize: 0xC }
  - { offsetInCU: 0x20AEA, offset: 0x20AEA, size: 0x8, addend: 0x0, symName: __ZNSt3__110__function12__alloc_funcIPFddENS_9allocatorIS3_EES2_EC2B8ue170006EOS3_OS5_, symObjAddr: 0xA320, symBinAddr: 0x10000DB30, symSize: 0x5C }
  - { offsetInCU: 0x20B30, offset: 0x20B30, size: 0x8, addend: 0x0, symName: __ZNSt3__117__compressed_pairIPFddENS_9allocatorIS2_EEEC1B8ue170006IJOS2_EJOS4_EEENS_21piecewise_construct_tENS_5tupleIJDpT_EEENSA_IJDpT0_EEE, symObjAddr: 0xA3D4, symBinAddr: 0x10000DBE4, symSize: 0x3C }
  - { offsetInCU: 0x20B9A, offset: 0x20B9A, size: 0x8, addend: 0x0, symName: __ZNSt3__15tupleIJOPFddEEEC1B8ue170006IJS2_ELi0EEEDpOT_, symObjAddr: 0xA410, symBinAddr: 0x10000DC20, symSize: 0x34 }
  - { offsetInCU: 0x20BE4, offset: 0x20BE4, size: 0x8, addend: 0x0, symName: __ZNSt3__15tupleIJOPFddEEEC2B8ue170006IJS2_ELi0EEEDpOT_, symObjAddr: 0xA444, symBinAddr: 0x10000DC54, symSize: 0x34 }
  - { offsetInCU: 0x20C2E, offset: 0x20C2E, size: 0x8, addend: 0x0, symName: __ZNSt3__112__tuple_implINS_15__tuple_indicesIJLm0EEEEJOPFddEEEC1B8ue170006IJLm0EEJS5_EJEJEJS4_EEENS1_IJXspT_EEEENS_13__tuple_typesIJDpT0_EEENS1_IJXspT1_EEEENS9_IJDpT2_EEEDpOT3_, symObjAddr: 0xA478, symBinAddr: 0x10000DC88, symSize: 0x34 }
  - { offsetInCU: 0x20CC3, offset: 0x20CC3, size: 0x8, addend: 0x0, symName: __ZNSt3__112__tuple_implINS_15__tuple_indicesIJLm0EEEEJOPFddEEEC2B8ue170006IJLm0EEJS5_EJEJEJS4_EEENS1_IJXspT_EEEENS_13__tuple_typesIJDpT0_EEENS1_IJXspT1_EEEENS9_IJDpT2_EEEDpOT3_, symObjAddr: 0xA4AC, symBinAddr: 0x10000DCBC, symSize: 0x34 }
  - { offsetInCU: 0x20D58, offset: 0x20D58, size: 0x8, addend: 0x0, symName: __ZNSt3__112__tuple_leafILm0EOPFddELb0EEC2B8ue170006IS2_vEEOT_, symObjAddr: 0xA4E0, symBinAddr: 0x10000DCF0, symSize: 0x20 }
  - { offsetInCU: 0x20D9B, offset: 0x20D9B, size: 0x8, addend: 0x0, symName: __ZNSt3__15tupleIJONS_9allocatorIPFddEEEEEC1B8ue170006IJS4_ELi0EEEDpOT_, symObjAddr: 0xA500, symBinAddr: 0x10000DD10, symSize: 0x34 }
  - { offsetInCU: 0x20DE5, offset: 0x20DE5, size: 0x8, addend: 0x0, symName: __ZNSt3__15tupleIJONS_9allocatorIPFddEEEEEC2B8ue170006IJS4_ELi0EEEDpOT_, symObjAddr: 0xA534, symBinAddr: 0x10000DD44, symSize: 0x34 }
  - { offsetInCU: 0x20E2F, offset: 0x20E2F, size: 0x8, addend: 0x0, symName: __ZNSt3__112__tuple_implINS_15__tuple_indicesIJLm0EEEEJONS_9allocatorIPFddEEEEEC1B8ue170006IJLm0EEJS7_EJEJEJS6_EEENS1_IJXspT_EEEENS_13__tuple_typesIJDpT0_EEENS1_IJXspT1_EEEENSB_IJDpT2_EEEDpOT3_, symObjAddr: 0xA568, symBinAddr: 0x10000DD78, symSize: 0x34 }
  - { offsetInCU: 0x20EC4, offset: 0x20EC4, size: 0x8, addend: 0x0, symName: __ZNSt3__112__tuple_implINS_15__tuple_indicesIJLm0EEEEJONS_9allocatorIPFddEEEEEC2B8ue170006IJLm0EEJS7_EJEJEJS6_EEENS1_IJXspT_EEEENS_13__tuple_typesIJDpT0_EEENS1_IJXspT1_EEEENSB_IJDpT2_EEEDpOT3_, symObjAddr: 0xA59C, symBinAddr: 0x10000DDAC, symSize: 0x34 }
  - { offsetInCU: 0x20F59, offset: 0x20F59, size: 0x8, addend: 0x0, symName: __ZNSt3__112__tuple_leafILm0EONS_9allocatorIPFddEEELb0EEC2B8ue170006IS4_vEEOT_, symObjAddr: 0xA5D0, symBinAddr: 0x10000DDE0, symSize: 0x20 }
  - { offsetInCU: 0x20F9C, offset: 0x20F9C, size: 0x8, addend: 0x0, symName: __ZNSt3__117__compressed_pairIPFddENS_9allocatorIS2_EEEC2B8ue170006IJOS2_EJOS4_EEENS_21piecewise_construct_tENS_5tupleIJDpT_EEENSA_IJDpT0_EEE, symObjAddr: 0xA5F0, symBinAddr: 0x10000DE00, symSize: 0x54 }
  - { offsetInCU: 0x21006, offset: 0x21006, size: 0x8, addend: 0x0, symName: __ZNSt3__122__compressed_pair_elemIPFddELi0ELb0EEC2B8ue170006IJOS2_EJLm0EEEENS_21piecewise_construct_tENS_5tupleIJDpT_EEENS_15__tuple_indicesIJXspT0_EEEE, symObjAddr: 0xA644, symBinAddr: 0x10000DE54, symSize: 0x44 }
  - { offsetInCU: 0x21069, offset: 0x21069, size: 0x8, addend: 0x0, symName: __ZNSt3__122__compressed_pair_elemINS_9allocatorIPFddEEELi1ELb1EEC2B8ue170006IJOS4_EJLm0EEEENS_21piecewise_construct_tENS_5tupleIJDpT_EEENS_15__tuple_indicesIJXspT0_EEEE, symObjAddr: 0xA688, symBinAddr: 0x10000DE98, symSize: 0x38 }
  - { offsetInCU: 0x210CC, offset: 0x210CC, size: 0x8, addend: 0x0, symName: __ZNSt3__112__tuple_leafILm0EOPFddELb0EE3getB8ue170006Ev, symObjAddr: 0xA6E4, symBinAddr: 0x10000DEF4, symSize: 0x18 }
  - { offsetInCU: 0x210F2, offset: 0x210F2, size: 0x8, addend: 0x0, symName: __ZNSt3__112__tuple_leafILm0EONS_9allocatorIPFddEEELb0EE3getB8ue170006Ev, symObjAddr: 0xA720, symBinAddr: 0x10000DF30, symSize: 0x18 }
  - { offsetInCU: 0x21118, offset: 0x21118, size: 0x8, addend: 0x0, symName: __ZNSt3__110__function6__funcIPFddENS_9allocatorIS3_EES2_ED2Ev, symObjAddr: 0xA738, symBinAddr: 0x10000DF48, symSize: 0x2C }
  - { offsetInCU: 0x21145, offset: 0x21145, size: 0x8, addend: 0x0, symName: __ZNKSt3__110__function12__alloc_funcIPFddENS_9allocatorIS3_EES2_E15__get_allocatorB8ue170006Ev, symObjAddr: 0xA764, symBinAddr: 0x10000DF74, symSize: 0x24 }
  - { offsetInCU: 0x2116B, offset: 0x2116B, size: 0x8, addend: 0x0, symName: __ZNSt3__19allocatorINS_10__function6__funcIPFddENS0_IS4_EES3_EEE8allocateB8ue170006Em, symObjAddr: 0xA788, symBinAddr: 0x10000DF98, symSize: 0x58 }
  - { offsetInCU: 0x211B1, offset: 0x211B1, size: 0x8, addend: 0x0, symName: __ZNSt3__122__allocator_destructorINS_9allocatorINS_10__function6__funcIPFddENS1_IS5_EES4_EEEEEC1B8ue170006ERS8_m, symObjAddr: 0xA7E0, symBinAddr: 0x10000DFF0, symSize: 0x3C }
  - { offsetInCU: 0x21298, offset: 0x21298, size: 0x8, addend: 0x0, symName: __ZNSt3__110unique_ptrINS_10__function6__funcIPFddENS_9allocatorIS4_EES3_EENS_22__allocator_destructorINS5_IS7_EEEEEC1B8ue170006ILb1EvEEPS7_NS_16__dependent_typeINS_27__unique_ptr_deleter_sfinaeISA_EEXT_EE20__good_rval_ref_typeE, symObjAddr: 0xA81C, symBinAddr: 0x10000E02C, symSize: 0x3C }
  - { offsetInCU: 0x212E9, offset: 0x212E9, size: 0x8, addend: 0x0, symName: __ZNKSt3__110unique_ptrINS_10__function6__funcIPFddENS_9allocatorIS4_EES3_EENS_22__allocator_destructorINS5_IS7_EEEEE3getB8ue170006Ev, symObjAddr: 0xA858, symBinAddr: 0x10000E068, symSize: 0x28 }
  - { offsetInCU: 0x2130F, offset: 0x2130F, size: 0x8, addend: 0x0, symName: __ZNKSt3__110__function12__alloc_funcIPFddENS_9allocatorIS3_EES2_E8__targetB8ue170006Ev, symObjAddr: 0xA880, symBinAddr: 0x10000E090, symSize: 0x24 }
  - { offsetInCU: 0x21335, offset: 0x21335, size: 0x8, addend: 0x0, symName: __ZNSt3__110__function6__funcIPFddENS_9allocatorIS3_EES2_EC1B8ue170006ERKS3_OS5_, symObjAddr: 0xA8A4, symBinAddr: 0x10000E0B4, symSize: 0x3C }
  - { offsetInCU: 0x2137D, offset: 0x2137D, size: 0x8, addend: 0x0, symName: __ZNSt3__110unique_ptrINS_10__function6__funcIPFddENS_9allocatorIS4_EES3_EENS_22__allocator_destructorINS5_IS7_EEEEE7releaseB8ue170006Ev, symObjAddr: 0xA8E0, symBinAddr: 0x10000E0F0, symSize: 0x44 }
  - { offsetInCU: 0x213B2, offset: 0x213B2, size: 0x8, addend: 0x0, symName: __ZNSt3__110unique_ptrINS_10__function6__funcIPFddENS_9allocatorIS4_EES3_EENS_22__allocator_destructorINS5_IS7_EEEEED1B8ue170006Ev, symObjAddr: 0xA924, symBinAddr: 0x10000E134, symSize: 0x2C }
  - { offsetInCU: 0x213DC, offset: 0x213DC, size: 0x8, addend: 0x0, symName: __ZNKSt3__117__compressed_pairIPFddENS_9allocatorIS2_EEE6secondB8ue170006Ev, symObjAddr: 0xA950, symBinAddr: 0x10000E160, symSize: 0x24 }
  - { offsetInCU: 0x21402, offset: 0x21402, size: 0x8, addend: 0x0, symName: __ZNKSt3__122__compressed_pair_elemINS_9allocatorIPFddEEELi1ELb1EE5__getB8ue170006Ev, symObjAddr: 0xA974, symBinAddr: 0x10000E184, symSize: 0x14 }
  - { offsetInCU: 0x21433, offset: 0x21433, size: 0x8, addend: 0x0, symName: __ZNSt3__116allocator_traitsINS_9allocatorINS_10__function6__funcIPFddENS1_IS5_EES4_EEEEE8max_sizeB8ue170006IS8_vEEmRKS8_, symObjAddr: 0xA988, symBinAddr: 0x10000E198, symSize: 0x24 }
  - { offsetInCU: 0x21461, offset: 0x21461, size: 0x8, addend: 0x0, symName: __ZNKSt3__19allocatorINS_10__function6__funcIPFddENS0_IS4_EES3_EEE8max_sizeB8ue170006Ev, symObjAddr: 0xA9AC, symBinAddr: 0x10000E1BC, symSize: 0x14 }
  - { offsetInCU: 0x21487, offset: 0x21487, size: 0x8, addend: 0x0, symName: __ZNSt3__122__allocator_destructorINS_9allocatorINS_10__function6__funcIPFddENS1_IS5_EES4_EEEEEC2B8ue170006ERS8_m, symObjAddr: 0xA9C0, symBinAddr: 0x10000E1D0, symSize: 0x2C }
  - { offsetInCU: 0x214CD, offset: 0x214CD, size: 0x8, addend: 0x0, symName: __ZNSt3__110unique_ptrINS_10__function6__funcIPFddENS_9allocatorIS4_EES3_EENS_22__allocator_destructorINS5_IS7_EEEEEC2B8ue170006ILb1EvEEPS7_NS_16__dependent_typeINS_27__unique_ptr_deleter_sfinaeISA_EEXT_EE20__good_rval_ref_typeE, symObjAddr: 0xA9EC, symBinAddr: 0x10000E1FC, symSize: 0x48 }
  - { offsetInCU: 0x2151E, offset: 0x2151E, size: 0x8, addend: 0x0, symName: __ZNSt3__117__compressed_pairIPNS_10__function6__funcIPFddENS_9allocatorIS4_EES3_EENS_22__allocator_destructorINS5_IS7_EEEEEC1B8ue170006IRS8_SB_EEOT_OT0_, symObjAddr: 0xAA34, symBinAddr: 0x10000E244, symSize: 0x3C }
  - { offsetInCU: 0x21576, offset: 0x21576, size: 0x8, addend: 0x0, symName: __ZNSt3__117__compressed_pairIPNS_10__function6__funcIPFddENS_9allocatorIS4_EES3_EENS_22__allocator_destructorINS5_IS7_EEEEEC2B8ue170006IRS8_SB_EEOT_OT0_, symObjAddr: 0xAA70, symBinAddr: 0x10000E280, symSize: 0x48 }
  - { offsetInCU: 0x215CE, offset: 0x215CE, size: 0x8, addend: 0x0, symName: __ZNSt3__122__compressed_pair_elemIPNS_10__function6__funcIPFddENS_9allocatorIS4_EES3_EELi0ELb0EEC2B8ue170006IRS8_vEEOT_, symObjAddr: 0xAAB8, symBinAddr: 0x10000E2C8, symSize: 0x24 }
  - { offsetInCU: 0x21610, offset: 0x21610, size: 0x8, addend: 0x0, symName: __ZNSt3__122__compressed_pair_elemINS_22__allocator_destructorINS_9allocatorINS_10__function6__funcIPFddENS2_IS6_EES5_EEEEEELi1ELb0EEC2B8ue170006ISA_vEEOT_, symObjAddr: 0xAADC, symBinAddr: 0x10000E2EC, symSize: 0x24 }
  - { offsetInCU: 0x21652, offset: 0x21652, size: 0x8, addend: 0x0, symName: __ZNKSt3__117__compressed_pairIPNS_10__function6__funcIPFddENS_9allocatorIS4_EES3_EENS_22__allocator_destructorINS5_IS7_EEEEE5firstB8ue170006Ev, symObjAddr: 0xAB00, symBinAddr: 0x10000E310, symSize: 0x24 }
  - { offsetInCU: 0x21678, offset: 0x21678, size: 0x8, addend: 0x0, symName: __ZNKSt3__122__compressed_pair_elemIPNS_10__function6__funcIPFddENS_9allocatorIS4_EES3_EELi0ELb0EE5__getB8ue170006Ev, symObjAddr: 0xAB24, symBinAddr: 0x10000E334, symSize: 0x14 }
  - { offsetInCU: 0x2169E, offset: 0x2169E, size: 0x8, addend: 0x0, symName: __ZNKSt3__117__compressed_pairIPFddENS_9allocatorIS2_EEE5firstB8ue170006Ev, symObjAddr: 0xAB38, symBinAddr: 0x10000E348, symSize: 0x24 }
  - { offsetInCU: 0x216C4, offset: 0x216C4, size: 0x8, addend: 0x0, symName: __ZNKSt3__122__compressed_pair_elemIPFddELi0ELb0EE5__getB8ue170006Ev, symObjAddr: 0xAB5C, symBinAddr: 0x10000E36C, symSize: 0x14 }
  - { offsetInCU: 0x216EA, offset: 0x216EA, size: 0x8, addend: 0x0, symName: __ZNSt3__110__function6__funcIPFddENS_9allocatorIS3_EES2_EC2B8ue170006ERKS3_OS5_, symObjAddr: 0xAB70, symBinAddr: 0x10000E380, symSize: 0x88 }
  - { offsetInCU: 0x21732, offset: 0x21732, size: 0x8, addend: 0x0, symName: __ZNSt3__110__function12__alloc_funcIPFddENS_9allocatorIS3_EES2_EC1B8ue170006ERKS3_OS5_, symObjAddr: 0xABF8, symBinAddr: 0x10000E408, symSize: 0x3C }
  - { offsetInCU: 0x21778, offset: 0x21778, size: 0x8, addend: 0x0, symName: __ZNSt3__110__function12__alloc_funcIPFddENS_9allocatorIS3_EES2_EC2B8ue170006ERKS3_OS5_, symObjAddr: 0xAC34, symBinAddr: 0x10000E444, symSize: 0x5C }
  - { offsetInCU: 0x217BE, offset: 0x217BE, size: 0x8, addend: 0x0, symName: __ZNSt3__117__compressed_pairIPFddENS_9allocatorIS2_EEEC1B8ue170006IJRKS2_EJOS4_EEENS_21piecewise_construct_tENS_5tupleIJDpT_EEENSB_IJDpT0_EEE, symObjAddr: 0xACBC, symBinAddr: 0x10000E4CC, symSize: 0x3C }
  - { offsetInCU: 0x21828, offset: 0x21828, size: 0x8, addend: 0x0, symName: __ZNSt3__15tupleIJRKPFddEEEC1B8ue170006INS_4_AndELi0EEES4_, symObjAddr: 0xACF8, symBinAddr: 0x10000E508, symSize: 0x34 }
  - { offsetInCU: 0x21871, offset: 0x21871, size: 0x8, addend: 0x0, symName: __ZNSt3__15tupleIJRKPFddEEEC2B8ue170006INS_4_AndELi0EEES4_, symObjAddr: 0xAD2C, symBinAddr: 0x10000E53C, symSize: 0x34 }
  - { offsetInCU: 0x218BA, offset: 0x218BA, size: 0x8, addend: 0x0, symName: __ZNSt3__112__tuple_implINS_15__tuple_indicesIJLm0EEEEJRKPFddEEEC1B8ue170006IJLm0EEJS6_EJEJEJS6_EEENS1_IJXspT_EEEENS_13__tuple_typesIJDpT0_EEENS1_IJXspT1_EEEENSA_IJDpT2_EEEDpOT3_, symObjAddr: 0xAD60, symBinAddr: 0x10000E570, symSize: 0x34 }
  - { offsetInCU: 0x2194F, offset: 0x2194F, size: 0x8, addend: 0x0, symName: __ZNSt3__112__tuple_implINS_15__tuple_indicesIJLm0EEEEJRKPFddEEEC2B8ue170006IJLm0EEJS6_EJEJEJS6_EEENS1_IJXspT_EEEENS_13__tuple_typesIJDpT0_EEENS1_IJXspT1_EEEENSA_IJDpT2_EEEDpOT3_, symObjAddr: 0xAD94, symBinAddr: 0x10000E5A4, symSize: 0x34 }
  - { offsetInCU: 0x219E4, offset: 0x219E4, size: 0x8, addend: 0x0, symName: __ZNSt3__112__tuple_leafILm0ERKPFddELb0EEC2B8ue170006IS4_vEEOT_, symObjAddr: 0xADC8, symBinAddr: 0x10000E5D8, symSize: 0x20 }
  - { offsetInCU: 0x21A27, offset: 0x21A27, size: 0x8, addend: 0x0, symName: __ZNSt3__117__compressed_pairIPFddENS_9allocatorIS2_EEEC2B8ue170006IJRKS2_EJOS4_EEENS_21piecewise_construct_tENS_5tupleIJDpT_EEENSB_IJDpT0_EEE, symObjAddr: 0xADE8, symBinAddr: 0x10000E5F8, symSize: 0x54 }
  - { offsetInCU: 0x21A91, offset: 0x21A91, size: 0x8, addend: 0x0, symName: __ZNSt3__122__compressed_pair_elemIPFddELi0ELb0EEC2B8ue170006IJRKS2_EJLm0EEEENS_21piecewise_construct_tENS_5tupleIJDpT_EEENS_15__tuple_indicesIJXspT0_EEEE, symObjAddr: 0xAE3C, symBinAddr: 0x10000E64C, symSize: 0x44 }
  - { offsetInCU: 0x21AF4, offset: 0x21AF4, size: 0x8, addend: 0x0, symName: __ZNSt3__112__tuple_leafILm0ERKPFddELb0EE3getB8ue170006Ev, symObjAddr: 0xAEA4, symBinAddr: 0x10000E6B4, symSize: 0x18 }
  - { offsetInCU: 0x21B1A, offset: 0x21B1A, size: 0x8, addend: 0x0, symName: __ZNSt3__117__compressed_pairIPNS_10__function6__funcIPFddENS_9allocatorIS4_EES3_EENS_22__allocator_destructorINS5_IS7_EEEEE5firstB8ue170006Ev, symObjAddr: 0xAEBC, symBinAddr: 0x10000E6CC, symSize: 0x24 }
  - { offsetInCU: 0x21B40, offset: 0x21B40, size: 0x8, addend: 0x0, symName: __ZNSt3__122__compressed_pair_elemIPNS_10__function6__funcIPFddENS_9allocatorIS4_EES3_EELi0ELb0EE5__getB8ue170006Ev, symObjAddr: 0xAEE0, symBinAddr: 0x10000E6F0, symSize: 0x14 }
  - { offsetInCU: 0x21B66, offset: 0x21B66, size: 0x8, addend: 0x0, symName: __ZNSt3__110unique_ptrINS_10__function6__funcIPFddENS_9allocatorIS4_EES3_EENS_22__allocator_destructorINS5_IS7_EEEEED2B8ue170006Ev, symObjAddr: 0xAEF4, symBinAddr: 0x10000E704, symSize: 0x30 }
  - { offsetInCU: 0x21B90, offset: 0x21B90, size: 0x8, addend: 0x0, symName: __ZNSt3__110unique_ptrINS_10__function6__funcIPFddENS_9allocatorIS4_EES3_EENS_22__allocator_destructorINS5_IS7_EEEEE5resetB8ue170006EPS7_, symObjAddr: 0xAF24, symBinAddr: 0x10000E734, symSize: 0x78 }
  - { offsetInCU: 0x21BD4, offset: 0x21BD4, size: 0x8, addend: 0x0, symName: __ZNSt3__117__compressed_pairIPNS_10__function6__funcIPFddENS_9allocatorIS4_EES3_EENS_22__allocator_destructorINS5_IS7_EEEEE6secondB8ue170006Ev, symObjAddr: 0xAF9C, symBinAddr: 0x10000E7AC, symSize: 0x28 }
  - { offsetInCU: 0x21BFA, offset: 0x21BFA, size: 0x8, addend: 0x0, symName: __ZNSt3__122__allocator_destructorINS_9allocatorINS_10__function6__funcIPFddENS1_IS5_EES4_EEEEEclB8ue170006EPS7_, symObjAddr: 0xAFC4, symBinAddr: 0x10000E7D4, symSize: 0x34 }
  - { offsetInCU: 0x21C2E, offset: 0x21C2E, size: 0x8, addend: 0x0, symName: __ZNSt3__122__compressed_pair_elemINS_22__allocator_destructorINS_9allocatorINS_10__function6__funcIPFddENS2_IS6_EES5_EEEEEELi1ELb0EE5__getB8ue170006Ev, symObjAddr: 0xAFF8, symBinAddr: 0x10000E808, symSize: 0x14 }
  - { offsetInCU: 0x21C54, offset: 0x21C54, size: 0x8, addend: 0x0, symName: __ZNSt3__116allocator_traitsINS_9allocatorINS_10__function6__funcIPFddENS1_IS5_EES4_EEEEE10deallocateB8ue170006ERS8_PS7_m, symObjAddr: 0xB00C, symBinAddr: 0x10000E81C, symSize: 0x34 }
  - { offsetInCU: 0x21C96, offset: 0x21C96, size: 0x8, addend: 0x0, symName: __ZNSt3__19allocatorINS_10__function6__funcIPFddENS0_IS4_EES3_EEE10deallocateB8ue170006EPS6_m, symObjAddr: 0xB040, symBinAddr: 0x10000E850, symSize: 0x40 }
  - { offsetInCU: 0x21CD8, offset: 0x21CD8, size: 0x8, addend: 0x0, symName: __ZNSt3__110__function6__funcIPFddENS_9allocatorIS3_EES2_EC1B8ue170006ERKS3_RKS5_, symObjAddr: 0xB080, symBinAddr: 0x10000E890, symSize: 0x3C }
  - { offsetInCU: 0x21D20, offset: 0x21D20, size: 0x8, addend: 0x0, symName: __ZNSt3__110__function6__funcIPFddENS_9allocatorIS3_EES2_EC2B8ue170006ERKS3_RKS5_, symObjAddr: 0xB0BC, symBinAddr: 0x10000E8CC, symSize: 0x88 }
  - { offsetInCU: 0x21D68, offset: 0x21D68, size: 0x8, addend: 0x0, symName: __ZNSt3__110__function12__alloc_funcIPFddENS_9allocatorIS3_EES2_EC1B8ue170006ERKS3_RKS5_, symObjAddr: 0xB144, symBinAddr: 0x10000E954, symSize: 0x3C }
  - { offsetInCU: 0x21DAE, offset: 0x21DAE, size: 0x8, addend: 0x0, symName: __ZNSt3__110__function12__alloc_funcIPFddENS_9allocatorIS3_EES2_EC2B8ue170006ERKS3_RKS5_, symObjAddr: 0xB180, symBinAddr: 0x10000E990, symSize: 0x5C }
  - { offsetInCU: 0x21DF4, offset: 0x21DF4, size: 0x8, addend: 0x0, symName: __ZNSt3__117__compressed_pairIPFddENS_9allocatorIS2_EEEC1B8ue170006IJRKS2_EJRKS4_EEENS_21piecewise_construct_tENS_5tupleIJDpT_EEENSC_IJDpT0_EEE, symObjAddr: 0xB208, symBinAddr: 0x10000EA18, symSize: 0x3C }
  - { offsetInCU: 0x21E5E, offset: 0x21E5E, size: 0x8, addend: 0x0, symName: __ZNSt3__15tupleIJRKNS_9allocatorIPFddEEEEEC1B8ue170006INS_4_AndELi0EEES6_, symObjAddr: 0xB244, symBinAddr: 0x10000EA54, symSize: 0x34 }
  - { offsetInCU: 0x21EA7, offset: 0x21EA7, size: 0x8, addend: 0x0, symName: __ZNSt3__15tupleIJRKNS_9allocatorIPFddEEEEEC2B8ue170006INS_4_AndELi0EEES6_, symObjAddr: 0xB278, symBinAddr: 0x10000EA88, symSize: 0x34 }
  - { offsetInCU: 0x21EF0, offset: 0x21EF0, size: 0x8, addend: 0x0, symName: __ZNSt3__112__tuple_implINS_15__tuple_indicesIJLm0EEEEJRKNS_9allocatorIPFddEEEEEC1B8ue170006IJLm0EEJS8_EJEJEJS8_EEENS1_IJXspT_EEEENS_13__tuple_typesIJDpT0_EEENS1_IJXspT1_EEEENSC_IJDpT2_EEEDpOT3_, symObjAddr: 0xB2AC, symBinAddr: 0x10000EABC, symSize: 0x34 }
  - { offsetInCU: 0x21F85, offset: 0x21F85, size: 0x8, addend: 0x0, symName: __ZNSt3__112__tuple_implINS_15__tuple_indicesIJLm0EEEEJRKNS_9allocatorIPFddEEEEEC2B8ue170006IJLm0EEJS8_EJEJEJS8_EEENS1_IJXspT_EEEENS_13__tuple_typesIJDpT0_EEENS1_IJXspT1_EEEENSC_IJDpT2_EEEDpOT3_, symObjAddr: 0xB2E0, symBinAddr: 0x10000EAF0, symSize: 0x34 }
  - { offsetInCU: 0x2201A, offset: 0x2201A, size: 0x8, addend: 0x0, symName: __ZNSt3__112__tuple_leafILm0ERKNS_9allocatorIPFddEEELb0EEC2B8ue170006IS6_vEEOT_, symObjAddr: 0xB314, symBinAddr: 0x10000EB24, symSize: 0x20 }
  - { offsetInCU: 0x2205D, offset: 0x2205D, size: 0x8, addend: 0x0, symName: __ZNSt3__117__compressed_pairIPFddENS_9allocatorIS2_EEEC2B8ue170006IJRKS2_EJRKS4_EEENS_21piecewise_construct_tENS_5tupleIJDpT_EEENSC_IJDpT0_EEE, symObjAddr: 0xB334, symBinAddr: 0x10000EB44, symSize: 0x54 }
  - { offsetInCU: 0x220C7, offset: 0x220C7, size: 0x8, addend: 0x0, symName: __ZNSt3__122__compressed_pair_elemINS_9allocatorIPFddEEELi1ELb1EEC2B8ue170006IJRKS4_EJLm0EEEENS_21piecewise_construct_tENS_5tupleIJDpT_EEENS_15__tuple_indicesIJXspT0_EEEE, symObjAddr: 0xB388, symBinAddr: 0x10000EB98, symSize: 0x38 }
  - { offsetInCU: 0x2212A, offset: 0x2212A, size: 0x8, addend: 0x0, symName: __ZNSt3__112__tuple_leafILm0ERKNS_9allocatorIPFddEEELb0EE3getB8ue170006Ev, symObjAddr: 0xB3E4, symBinAddr: 0x10000EBF4, symSize: 0x18 }
  - { offsetInCU: 0x22150, offset: 0x22150, size: 0x8, addend: 0x0, symName: __ZNSt3__110__function12__alloc_funcIPFddENS_9allocatorIS3_EES2_E7destroyB8ue170006Ev, symObjAddr: 0xB3FC, symBinAddr: 0x10000EC0C, symSize: 0x10 }
  - { offsetInCU: 0x22176, offset: 0x22176, size: 0x8, addend: 0x0, symName: __ZNSt3__110__function12__alloc_funcIPFddENS_9allocatorIS3_EES2_EclB8ue170006EOd, symObjAddr: 0xB40C, symBinAddr: 0x10000EC1C, symSize: 0x30 }
  - { offsetInCU: 0x221AA, offset: 0x221AA, size: 0x8, addend: 0x0, symName: __ZNSt3__128__invoke_void_return_wrapperIdLb0EE6__callB8ue170006IJRPFddEdEEEdDpOT_, symObjAddr: 0xB43C, symBinAddr: 0x10000EC4C, symSize: 0x2C }
  - { offsetInCU: 0x221ED, offset: 0x221ED, size: 0x8, addend: 0x0, symName: __ZNSt3__117__compressed_pairIPFddENS_9allocatorIS2_EEE5firstB8ue170006Ev, symObjAddr: 0xB468, symBinAddr: 0x10000EC78, symSize: 0x24 }
  - { offsetInCU: 0x22213, offset: 0x22213, size: 0x8, addend: 0x0, symName: __ZNSt3__122__compressed_pair_elemIPFddELi0ELb0EE5__getB8ue170006Ev, symObjAddr: 0xB4C0, symBinAddr: 0x10000ECD0, symSize: 0x14 }
  - { offsetInCU: 0x22239, offset: 0x22239, size: 0x8, addend: 0x0, symName: __ZNSt3__110__function12__value_funcIFdddEEaSB8ue170006EOS3_, symObjAddr: 0xB4D4, symBinAddr: 0x10000ECE4, symSize: 0xC0 }
  - { offsetInCU: 0x2226E, offset: 0x2226E, size: 0x8, addend: 0x0, symName: __ZNSt3__110__function12__value_funcIFdddEEaSB8ue170006EDn, symObjAddr: 0xB594, symBinAddr: 0x10000EDA4, symSize: 0x8C }
  - { offsetInCU: 0x222AF, offset: 0x222AF, size: 0x8, addend: 0x0, symName: __ZNSt3__110__function12__value_funcIFdddEE9__as_baseB8ue170006EPv, symObjAddr: 0xB620, symBinAddr: 0x10000EE30, symSize: 0x14 }
...
